(dp0
S'moving_object_list'
p1
(lp2
(I524
I324
tp3
aNaNaNaNaNaNaNaNaNaNaNaNaNaNaNaNaNaNaNaNaNaNaNaNaNaNaNaNaNaNaNaNaNaNaNaNaNaNaNaNaNaNaNaNaNaNaNaNaNa(I535
I340
tp4
aNaNaNaNaNaNaNaNaNaNaNaNaNaNaNaNaNaNaNaNaNaNaNaNaNaNaNaNaNaNaNaNaNaNaNaNaNaNaNaNaNaNaNaNaNaNaNaNaNa(I546
I357
tp5
aNaNaNaNaNaNaNaNaNaNaNaNaNaNaNaNaNaNaNaNaNaNaNaNaNaNaNaNaNaNaNaNaNaNaNaNaNaNaNaNaNaNaNaNaNaNaNaNaNa(I555
I375
tp6
aNaNaNaNaNaNaNaNaNaNaNaNaNaNaNaNaNaNaNaNaNaNaNaNaNaNaNaNaNaNaNaNaNaNaNaNaNaNaNaNaNaNaNaNaNaNaNaNaNa(I561
I388
tp7
aNaNaNaNaNaNaNaNaNaNaNaNaNaNaNaNaNaNaNaNaNaNaNaNaNaNaNaNaNaNaNaNaNaNaNaNaNaNaNaNaNaNaNaNaNaNaNaNaNa(I567
I407
tp8
aNaNaNaNaNaNaNaNaNaNaNaNaNaNaNaNaNaNaNaNaNaNaNaNaNaNaNaNaNaNaNaNaNaNaNaNaNaNaNaNaNaNaNaNaNaNaNaNaNa(I572
I427
tp9
aNaNaNaNaNaNaNaNaNaNaNaNaNaNaNaNaNaNaNaNaNaNaNaNaNaNaNaNaNaNaNaNaNaNaNaNaNaNaNaNaNaNaNaNaNaNaNaNaNa(I575
I446
tp10
aNaNaNaNaNaNaNaNaNaNaNaNaNaNaNaNaNaNaNaNaNaNaNaNaNaNaNaNaNaNaNaNaNaNaNaNaNaNaNaNaNaNaNaNaNaNaNaNaNa(I577
I466
tp11
aNaNaNaNaNaNaNaNaNaNaNaNaNaNaNaNaNaNaNaNaNaNaNaNaNaNaNaNaNaNaNaNaNaNaNaNaNaNaNaNaNaNaNaNaNaNaNaNaNa(I577
I486
tp12
aNaNaNaNaNaNaNaNaNaNaNaNaNaNaNaNaNaNaNaNaNaNaNaNaNaNaNaNaNaNaNaNaNaNaNaNaNaNaNaNaNaNaNaNaNaNaNaNaNa(I576
I501
tp13
aNaNaNaNaNaNaNaNaNaNaNaNaNaNaNaNaNaNaNaNaNaNaNaNaNaNaNaNaNaNaNaNaNaNaNaNaNaNaNaNaNaNaNaNaNaNaNaNaNa(I574
I521
tp14
aNaNaNaNaNaNaNaNaNaNaNaNaNaNaNaNaNaNaNaNaNaNaNaNaNaNaNaNaNaNaNaNaNaNaNaNaNaNaNaNaNaNaNaNaNaNaNaNaNa(I570
I541
tp15
aNaNaNaNaNaNaNaNaNaNaNaNaNaNaNaNaNaNaNaNaNaNaNaNaNaNaNaNaNaNaNaNaNaNaNaNaNaNaNaNaNaNaNaNaNaNaNaNaNa(I564
I560
tp16
aNaNaNaNaNaNaNaNaNaNaNaNaNaNaNaNaNaNaNaNaNaNaNaNaNaNaNaNaNaNaNaNaNaNaNaNaNaNaNaNaNaNaNaNaNaNaNaNaNa(I557
I578
tp17
aNaNaNaNaNaNaNaNaNaNaNaNaNaNaNaNaNaNaNaNaNaNaNaNaNaNaNaNaNaNaNaNaNaNaNaNaNaNaNaNaNaNaNaNaNaNaNaNaNa(I548
I596
tp18
aNaNaNaNaNaNaNaNaNaNaNaNaNaNaNaNaNaNaNaNaNaNaNaNaNaNaNaNaNaNaNaNaNaNaNaNaNaNaNaNaNaNaNaNaNaNaNaNaNaNa(I538
I614
tp19
aNaNaNaNaNaNaNaNaNaNaNaNaNaNaNaNaNaNaNaNaNaNaNaNaNaNaNaNaNaNaNaNaNaNaNaNaNaNaNaNaNaNaNaNaNaNaNaNa(I529
I626
tp20
aNaNaNaNaNaNaNaNaNaNaNaNaNaNaNaNaNaNaNaNaNaNaNaNaNaNaNaNaNaNaNaNaNaNaNaNaNaNaNaNaNaNaNaNaNaNaNaNaNa(I517
I642
tp21
aNaNaNaNaNaNaNaNaNaNaNaNaNaNaNaNaNaNaNaNaNaNaNaNaNaNaNaNaNaNaNaNaNaNaNaNaNaNaNaNaNaNaNaNaNaNaNaNaNa(I503
I656
tp22
aNaNaNaNaNaNaNaNaNaNaNaNaNaNaNaNaNaNaNaNaNaNaNaNaNaNaNaNaNaNaNaNaNaNaNaNaNaNaNaNaNaNaNaNaNaNaNaNaNa(I488
I670
tp23
aNaNaNaNaNaNaNaNaNaNaNaNaNaNaNaNaNaNaNaNaNaNaNaNaNaNaNaNaNaNaNaNaNaNaNaNaNaNaNaNaNaNaNaNaNaNaNaNaNa(I473
I682
tp24
aNaNaNaNaNaNaNaNaNaNaNaNaNaNaNaNaNaNaNaNaNaNaNaNaNaNaNaNaNaNaNaNaNaNaNaNaNaNaNaNaNaNaNaNaNaNaNaNaNa(I456
I693
tp25
aNaNaNaNaNaNaNaNaNaNaNaNaNaNaNaNaNaNaNaNaNaNaNaNaNaNaNaNaNaNaNaNaNaNaNaNaNaNaNaNaNaNaNaNaNaNaNaNaNa(I443
I700
tp26
aNaNaNaNaNaNaNaNaNaNaNaNaNaNaNaNaNaNaNaNaNaNaNaNaNaNaNaNaNaNaNaNaNaNaNaNaNaNaNaNaNaNaNaNaNaNaNaNaNa(I425
I709
tp27
aNaNaNaNaNaNaNaNaNaNaNaNaNaNaNaNaNaNaNaNaNaNaNaNaNaNaNaNaNaNaNaNaNaNaNaNaNaNaNaNaNaNaNaNaNaNaNaNaNa(I406
I716
tp28
aNaNaNaNaNaNaNaNaNaNaNaNaNaNaNaNaNaNaNaNaNaNaNaNaNaNaNaNaNaNaNaNaNaNaNaNaNaNaNaNaNaNaNaNaNaNaNaNaNa(I387
I721
tp29
aNaNaNaNaNaNaNaNaNaNaNaNaNaNaNaNaNaNaNaNaNaNaNaNaNaNaNaNaNaNaNaNaNaNaNaNaNaNaNaNaNaNaNaNaNaNaNaNaNa(I367
I725
tp30
aNaNaNaNaNaNaNaNaNaNaNaNaNaNaNaNaNaNaNaNaNaNaNaNaNaNaNaNaNaNaNaNaNaNaNaNaNaNaNaNaNaNaNaNaNaNaNaNaNa(I347
I728
tp31
aNaNaNaNaNaNaNaNaNaNaNaNaNaNaNaNaNaNaNaNaNaNaNaNaNaNaNaNaNaNaNaNaNaNaNaNaNaNaNaNaNaNaNaNaNaNaNaNaNa(I327
I728
tp32
aNaNaNaNaNaNaNaNaNaNaNaNaNaNaNaNaNaNaNaNaNaNaNaNaNaNaNaNaNaNaNaNaNaNaNaNaNaNaNaNaNaNaNaNaNaNaNaNaNaNa(I312
I728
tp33
aNaNaNaNaNaNaNaNaNaNaNaNaNaNaNaNaNaNaNaNaNaNaNaNaNaNaNaNaNaNaNaNaNaNaNaNaNaNaNaNaNaNaNaNaNaNaNaNa(I292
I726
tp34
aNaNaNaNaNaNaNaNaNaNaNaNaNaNaNaNaNaNaNaNaNaNaNaNaNaNaNaNaNaNaNaNaNaNaNaNaNaNaNaNaNaNaNaNaNaNaNaNaNa(I273
I722
tp35
aNaNaNaNaNaNaNaNaNaNaNaNaNaNaNaNaNaNaNaNaNaNaNaNaNaNaNaNaNaNaNaNaNaNaNaNaNaNaNaNaNaNaNaNaNaNaNaNaNa(I253
I717
tp36
aNaNaNaNaNaNaNaNaNaNaNaNaNaNaNaNaNaNaNaNaNaNaNaNaNaNaNaNaNaNaNaNaNaNaNaNaNaNaNaNaNaNaNaNaNaNaNaNaNa(I235
I711
tp37
aNaNaNaNaNaNaNaNaNaNaNaNaNaNaNaNaNaNaNaNaNaNaNaNaNaNaNaNaNaNaNaNaNaNaNaNaNaNaNaNaNaNaNaNaNaNaNaNaNa(I216
I702
tp38
aNaNaNaNaNaNaNaNaNaNaNaNaNaNaNaNaNaNaNaNaNaNaNaNaNaNaNaNaNaNaNaNaNaNaNaNaNaNaNaNaNaNaNaNaNaNaNaNaNa(I203
I695
tp39
aNaNaNaNaNaNaNaNaNaNaNaNaNaNaNaNaNaNaNaNaNaNaNaNaNaNaNaNaNaNaNaNaNaNaNaNaNaNaNaNaNaNaNaNaNaNaNaNaNa(I186
I685
tp40
aNaNaNaNaNaNaNaNaNaNaNaNaNaNaNaNaNaNaNaNaNaNaNaNaNaNaNaNaNaNaNaNaNaNaNaNaNaNaNaNaNaNaNaNaNaNaNaNaNa(I170
I673
tp41
aNaNaNaNaNaNaNaNaNaNaNaNaNaNaNaNaNaNaNaNaNaNaNaNaNaNaNaNaNaNaNaNaNaNaNaNaNaNaNaNaNaNaNaNaNaNaNaNaNa(I155
I660
tp42
aNaNaNaNaNaNaNaNaNaNaNaNaNaNaNaNaNaNaNaNaNaNaNaNaNaNaNaNaNaNaNaNaNaNaNaNaNaNaNaNaNaNaNaNaNaNaNaNaNa(I141
I645
tp43
aNaNaNaNaNaNaNaNaNaNaNaNaNaNaNaNaNaNaNaNaNaNaNaNaNaNaNaNaNaNaNaNaNaNaNaNaNaNaNaNaNaNaNaNaNaNaNaNaNa(I129
I630
tp44
aNaNaNaNaNaNaNaNaNaNaNaNaNaNaNaNaNaNaNaNaNaNaNaNaNaNaNaNaNaNaNaNaNaNaNaNaNaNaNaNaNaNaNaNaNaNaNaNaNa(I117
I613
tp45
aNaNaNaNaNaNaNaNaNaNaNaNaNaNaNaNaNaNaNaNaNaNaNaNaNaNaNaNaNaNaNaNaNaNaNaNaNaNaNaNaNaNaNaNaNaNaNaNaNaNa(I109
I601
tp46
aNaNaNaNaNaNaNaNaNaNaNaNaNaNaNaNaNaNaNaNaNaNaNaNaNaNaNaNaNaNaNaNaNaNaNaNaNaNaNaNaNaNaNaNaNaNaNaNa(I100
I583
tp47
aNaNaNaNaNaNaNaNaNaNaNaNaNaNaNaNaNaNaNaNaNaNaNaNaNaNaNaNaNaNaNaNaNaNaNaNaNaNaNaNaNaNaNaNaNaNaNaNaNa(I93
I564
tp48
aNaNaNaNaNaNaNaNaNaNaNaNaNaNaNaNaNaNaNaNaNaNaNaNaNaNaNaNaNaNaNaNaNaNaNaNaNaNaNaNaNaNaNaNaNaNaNaNaNa(I87
I545
tp49
aNaNaNaNaNaNaNaNaNaNaNaNaNaNaNaNaNaNaNaNaNaNaNaNaNaNaNaNaNaNaNaNaNaNaNaNaNaNaNaNaNaNaNaNaNaNaNaNaNa(I82
I526
tp50
aNaNaNaNaNaNaNaNaNaNaNaNaNaNaNaNaNaNaNaNaNaNaNaNaNaNaNaNaNaNaNaNaNaNaNaNaNaNaNaNaNaNaNaNaNaNaNaNaNa(I79
I506
tp51
aNaNaNaNaNaNaNaNaNaNaNaNaNaNaNaNaNaNaNaNaNaNaNaNaNaNaNaNaNaNaNaNaNaNaNaNaNaNaNaNaNaNaNaNaNaNaNaNaNa(I78
I491
tp52
aNaNaNaNaNaNaNaNaNaNaNaNaNaNaNaNaNaNaNaNaNaNaNaNaNaNaNaNaNaNaNaNaNaNaNaNaNaNaNaNaNaNaNaNaNaNaNaNaNa(I78
I471
tp53
aNaNaNaNaNaNaNaNaNaNaNaNaNaNaNaNaNaNaNaNaNaNaNaNaNaNaNaNaNaNaNaNaNaNaNaNaNaNaNaNaNaNaNaNaNaNaNaNaNa(I79
I451
tp54
aNaNaNaNaNaNaNaNaNaNaNaNaNaNaNaNaNaNaNaNaNaNaNaNaNaNaNaNaNaNaNaNaNaNaNaNaNaNaNaNaNaNaNaNaNaNaNaNaNa(I82
I431
tp55
aNaNaNaNaNaNaNaNaNaNaNaNaNaNaNaNaNaNaNaNaNaNaNaNaNaNaNaNaNaNaNaNaNaNaNaNaNaNaNaNaNaNaNaNaNaNaNaNaNa(I87
I412
tp56
aNaNaNaNaNaNaNaNaNaNaNaNaNaNaNaNaNaNaNaNaNaNaNaNaNaNaNaNaNaNaNaNaNaNaNaNaNaNaNaNaNaNaNaNaNaNaNaNaNa(I93
I393
tp57
aNaNaNaNaNaNaNaNaNaNaNaNaNaNaNaNaNaNaNaNaNaNaNaNaNaNaNaNaNaNaNaNaNaNaNaNaNaNaNaNaNaNaNaNaNaNaNaNaNaNa(I100
I374
tp58
aNaNaNaNaNaNaNaNaNaNaNaNaNaNaNaNaNaNaNaNaNaNaNaNaNaNaNaNaNaNaNaNaNaNaNaNaNaNaNaNaNaNaNaNaNaNaNaNa(I107
I361
tp59
aNaNaNaNaNaNaNaNaNaNaNaNaNaNaNaNaNaNaNaNaNaNaNaNaNaNaNaNaNaNaNaNaNaNaNaNaNaNaNaNaNaNaNaNaNaNaNaNaNa(I117
I344
tp60
aNaNaNaNaNaNaNaNaNaNaNaNaNaNaNaNaNaNaNaNaNaNaNaNaNaNaNaNaNaNaNaNaNaNaNaNaNaNaNaNaNaNaNaNaNaNaNaNaNa(I128
I327
tp61
aNaNaNaNaNaNaNaNaNaNaNaNaNaNaNaNaNaNaNaNaNaNaNaNaNaNaNaNaNaNaNaNaNaNaNaNaNaNaNaNaNaNaNaNaNaNaNaNaNa(I141
I312
tp62
aNaNaNaNaNaNaNaNaNaNaNaNaNaNaNaNaNaNaNaNaNaNaNaNaNaNaNaNaNaNaNaNaNaNaNaNaNaNaNaNaNaNaNaNaNaNaNaNaNa(I155
I297
tp63
aNaNaNaNaNaNaNaNaNaNaNaNaNaNaNaNaNaNaNaNaNaNaNaNaNaNaNaNaNaNaNaNaNaNaNaNaNaNaNaNaNaNaNaNaNaNaNaNaNa(I170
I284
tp64
aNaNaNaNaNaNaNaNaNaNaNaNaNaNaNaNaNaNaNaNaNaNaNaNaNaNaNaNaNaNaNaNaNaNaNaNaNaNaNaNaNaNaNaNaNaNaNaNaNa(I182
I275
tp65
aNaNaNaNaNaNaNaNaNaNaNaNaNaNaNaNaNaNaNaNaNaNaNaNaNaNaNaNaNaNaNaNaNaNaNaNaNaNaNaNaNaNaNaNaNaNaNaNaNa(I199
I264
tp66
aNaNaNaNaNaNaNaNaNaNaNaNaNaNaNaNaNaNaNaNaNaNaNaNaNaNaNaNaNaNaNaNaNaNaNaNaNaNaNaNaNaNaNaNaNaNaNaNaNa(I216
I255
tp67
aNaNaNaNaNaNaNaNaNaNaNaNaNaNaNaNaNaNaNaNaNaNaNaNaNaNaNaNaNaNaNaNaNaNaNaNaNaNaNaNaNaNaNaNaNaNaNaNaNa(I235
I246
tp68
aNaNaNaNaNaNaNaNaNaNaNaNaNaNaNaNaNaNaNaNaNaNaNaNaNaNaNaNaNaNaNaNaNaNaNaNaNaNaNaNaNaNaNaNaNaNaNaNaNa(I253
I240
tp69
aNaNaNaNaNaNaNaNaNaNaNaNaNaNaNaNaNaNaNaNaNaNaNaNaNaNaNaNaNaNaNaNaNaNaNaNaNaNaNaNaNaNaNaNaNaNaNaNaNa(I273
I235
tp70
aNaNaNaNaNaNaNaNaNaNaNaNaNaNaNaNaNaNaNaNaNaNaNaNaNaNaNaNaNaNaNaNaNaNaNaNaNaNaNaNaNaNaNaNaNaNaNaNaNaNa(I292
I231
tp71
aNaNaNaNaNaNaNaNaNaNaNaNaNaNaNaNaNaNaNaNaNaNaNaNaNaNaNaNaNaNaNaNaNaNaNaNaNaNaNaNaNaNaNaNaNaNaNaNa(I307
I229
tp72
aNaNaNaNaNaNaNaNaNaNaNaNaNaNaNaNaNaNaNaNaNaNaNaNaNaNaNaNaNaNaNaNaNaNaNaNaNaNaNaNaNaNaNaNaNaNaNaNaNa(I327
I229
tp73
aNaNaNaNaNaNaNaNaNaNaNaNaNaNaNaNaNaNaNaNaNaNaNaNaNaNaNaNaNaNaNaNaNaNaNaNaNaNaNaNaNaNaNaNaNaNaNaNaNa(I347
I229
tp74
aNaNaNaNaNaNaNaNaNaNaNaNaNaNaNaNaNaNaNaNaNaNaNaNaNaNaNaNaNaNaNaNaNaNaNaNaNaNaNaNaNaNaNaNaNaNaNaNaNa(I367
I232
tp75
aNaNaNaNaNaNaNaNaNaNaNaNaNaNaNaNaNaNaNaNaNaNaNaNaNaNaNaNaNaNaNaNaNaNaNaNaNaNaNaNaNaNaNaNaNaNaNaNaNa(I387
I236
tp76
aNaNaNaNaNaNaNaNaNaNaNaNaNaNaNaNaNaNaNaNaNaNaNaNaNaNaNaNaNaNaNaNaNaNaNaNaNaNaNaNaNaNaNaNaNaNaNaNaNa(I406
I241
tp77
aNaNaNaNaNaNaNaNaNaNaNaNaNaNaNaNaNaNaNaNaNaNaNaNaNaNaNaNaNaNaNaNaNaNaNaNaNaNaNaNaNaNaNaNaNaNaNaNaNa(I420
I246
tp78
aNaNaNaNaNaNaNaNaNaNaNaNaNaNaNaNaNaNaNaNaNaNaNaNaNaNaNaNaNaNaNaNaNaNaNaNaNaNaNaNaNaNaNaNaNaNaNaNaNa(I438
I254
tp79
aNaNaNaNaNaNaNaNaNaNaNaNaNaNaNaNaNaNaNaNaNaNaNaNaNaNaNaNaNaNaNaNaNaNaNaNaNaNaNaNaNaNaNaNaNaNaNaNaNa(I456
I264
tp80
aNaNaNaNaNaNaNaNaNaNaNaNaNaNaNaNaNaNaNaNaNaNaNaNaNaNaNaNaNaNaNaNaNaNaNaNaNaNaNaNaNaNaNaNaNaNaNaNaNa(I473
I275
tp81
aNaNaNaNaNaNaNaNaNaNaNaNaNaNaNaNaNaNaNaNaNaNaNaNaNaNaNaNaNaNaNaNaNaNaNaNaNaNaNaNaNaNaNaNaNaNaNaNaNa(I488
I287
tp82
aNaNaNaNaNaNaNaNaNaNaNaNaNaNaNaNaNaNaNaNaNaNaNaNaNaNaNaNaNaNaNaNaNaNaNaNaNaNaNaNaNaNaNaNaNaNaNaNaNa(I503
I301
tp83
aNaNaNaNaNaNaNaNaNaNaNaNaNaNaNaNaNaNaNaNaNaNaNaNaNaNaNaNaNaNaNaNaNaNaNaNaNaNaNaNaNaNaNaNaNaNaNaNaNaNa(I517
I315
tp84
aNaNaNaNaNaNaNaNaNaNaNaNaNaNaNaNaNaNaNaNaNaNaNaNaNaNaNaNaNaNaNaNaNaNaNaNaNaNaNaNaNaNaNaNaNaNaNaNa(I526
I327
tp85
aNaNaNaNaNaNaNaNaNaNaNaNaNaNaNaNaNaNaNaNaNaNaNaNaNaNaNaNaNaNaNaNaNaNaNaNaNaNaNaNaNaNaNaNaNaNaNaNaNa(I538
I343
tp86
aNaNaNaNaNaNaNaNaNaNaNaNaNaNaNaNaNaNaNaNaNaNaNaNaNaNaNaNaNaNaNaNaNaNaNaNaNaNaNaNaNaNaNaNaNaNaNaNaNa(I548
I360
tp87
aNaNaNaNaNaNaNaNaNaNaNaNaNaNaNaNaNaNaNaNaNaNaNaNaNaNaNaNaNaNaNaNaNaNaNaNaNaNaNaNaNaNaNaNaNaNaNaNaNa(I557
I378
tp88
aNaNaNaNaNaNaNaNaNaNaNaNaNaNaNaNaNaNaNaNaNaNaNaNaNaNaNaNaNaNaNaNaNaNaNaNaNaNaNaNaNaNaNaNaNaNaNaNaNa(I564
I397
tp89
aNaNaNaNaNaNaNaNaNaNaNaNaNaNaNaNaNaNaNaNaNaNaNaNaNaNaNaNaNaNaNaNaNaNaNaNaNaNaNaNaNaNaNaNaNaNaNaNaNa(I570
I416
tp90
aNaNaNaNaNaNaNaNaNaNaNaNaNaNaNaNaNaNaNaNaNaNaNaNaNaNaNaNaNaNaNaNaNaNaNaNaNaNaNaNaNaNaNaNaNaNaNaNaNa(I573
I431
tp91
aNaNaNaNaNaNaNaNaNaNaNaNaNaNaNaNaNaNaNaNaNaNaNaNaNaNaNaNaNaNaNaNaNaNaNaNaNaNaNaNaNaNaNaNaNaNaNaNaNa(I576
I451
tp92
aNaNaNaNaNaNaNaNaNaNaNaNaNaNaNaNaNaNaNaNaNaNaNaNaNaNaNaNaNaNaNaNaNaNaNaNaNaNaNaNaNaNaNaNaNaNaNaNaNa(I577
I471
tp93
aNaNaNaNaNaNaNaNaNaNaNaNaNaNaNaNaNaNaNaNaNaNaNaNaNaNaNaNaNaNaNaNaNaNaNaNaNaNaNaNaNaNaNaNaNaNaNaNaNa(I577
I491
tp94
aNaNaNaNaNaNaNaNaNaNaNaNaNaNaNaNaNaNaNaNaNaNaNaNaNaNaNaNaNaNaNaNaNaNaNaNaNaNaNaNaNaNaNaNaNaNaNaNaNa(I575
I510
tp95
aNaNaNaNaNaNaNaNaNaNaNaNaNaNaNaNaNaNaNaNaNaNaNaNaNaNaNaNaNaNaNaNaNaNaNaNaNaNaNaNaNaNaNaNaNaNaNaNaNa(I572
I530
tp96
aNaNaNaNaNaNaNaNaNaNaNaNaNaNaNaNaNaNaNaNaNaNaNaNaNaNaNaNaNaNaNaNaNaNaNaNaNaNaNaNaNaNaNaNaNaNaNaNaNaNa(I567
I550
tp97
aNaNaNaNaNaNaNaNaNaNaNaNaNaNaNaNaNaNaNaNaNaNaNaNaNaNaNaNaNaNaNaNaNaNaNaNaNaNaNaNaNaNaNaNaNaNaNaNa(I563
I564
tp98
aNaNaNaNaNaNaNaNaNaNaNaNaNaNaNaNaNaNaNaNaNaNaNaNaNaNaNaNaNaNaNaNaNaNaNaNaNaNaNaNaNaNaNaNaNaNaNaNaNa(I555
I582
tp99
aNaNaNaNaNaNaNaNaNaNaNaNaNaNaNaNaNaNaNaNaNaNaNaNaNaNaNaNaNaNaNaNaNaNaNaNaNaNaNaNaNaNaNaNaNaNaNaNaNa(I546
I600
tp100
aNaNaNaNaNaNaNaNaNaNaNaNaNaNaNaNaNaNaNaNaNaNaNaNaNaNaNaNaNaNaNaNaNaNaNaNaNaNaNaNaNaNaNaNaNaNaNaNaNa(I535
I617
tp101
aNaNaNaNaNaNaNaNaNaNaNaNaNaNaNaNaNaNaNaNaNaNaNaNaNaNaNaNaNaNaNaNaNaNaNaNaNaNaNaNaNaNaNaNaNaNaNaNaNa(I524
I633
tp102
aNaNaNaNaNaNaNaNaNaNaNaNaNaNaNaNaNaNaNaNaNaNaNaNaNaNaNaNaNaNaNaNaNaNaNaNaNaNaNaNaNaNaNaNaNaNaNaNaNa(I511
I649
tp103
aNaNaNaNaNaNaNaNaNaNaNaNaNaNaNaNaNaNaNaNaNaNaNaNaNaNaNaNaNaNaNaNaNaNaNaNaNaNaNaNaNaNaNaNaNaNaNaNaNa(I500
I659
tp104
aNaNaNaNaNaNaNaNaNaNaNaNaNaNaNaNaNaNaNaNaNaNaNaNaNaNaNaNaNaNaNaNaNaNaNaNaNaNaNaNaNaNaNaNaNaNaNaNaNa(I485
I672
tp105
aNaNaNaNaNaNaNaNaNaNaNaNaNaNaNaNaNaNaNaNaNaNaNaNaNaNaNaNaNaNaNaNaNaNaNaNaNaNaNaNaNaNaNaNaNaNaNaNaNa(I469
I684
tp106
aNaNaNaNaNaNaNaNaNaNaNaNaNaNaNaNaNaNaNaNaNaNaNaNaNaNaNaNaNaNaNaNaNaNaNaNaNaNaNaNaNaNaNaNaNaNaNaNaNa(I452
I695
tp107
aNaNaNaNaNaNaNaNaNaNaNaNaNaNaNaNaNaNaNaNaNaNaNaNaNaNaNaNaNaNaNaNaNaNaNaNaNaNaNaNaNaNaNaNaNaNaNaNaNa(I435
I704
tp108
aNaNaNaNaNaNaNaNaNaNaNaNaNaNaNaNaNaNaNaNaNaNaNaNaNaNaNaNaNaNaNaNaNaNaNaNaNaNaNaNaNaNaNaNaNaNaNaNaNa(I416
I712
tp109
aNaNaNaNaNaNaNaNaNaNaNaNaNaNaNaNaNaNaNaNaNaNaNaNaNaNaNaNaNaNaNaNaNaNaNaNaNaNaNaNaNaNaNaNaNaNaNaNaNaNa(I397
I719
tp110
aNaNaNaNaNaNaNaNaNaNaNaNaNaNaNaNaNaNaNaNaNaNaNaNaNaNaNaNaNaNaNaNaNaNaNaNaNaNaNaNaNaNaNaNaNaNaNaNa(I383
I722
tp111
aNaNaNaNaNaNaNaNaNaNaNaNaNaNaNaNaNaNaNaNaNaNaNaNaNaNaNaNaNaNaNaNaNaNaNaNaNaNaNaNaNaNaNaNaNaNaNaNaNa(I363
I726
tp112
aNaNaNaNaNaNaNaNaNaNaNaNaNaNaNaNaNaNaNaNaNaNaNaNaNaNaNaNaNaNaNaNaNaNaNaNaNaNaNaNaNaNaNaNaNaNaNaNaNa(I343
I728
tp113
aNaNaNaNaNaNaNaNaNaNaNaNaNaNaNaNaNaNaNaNaNaNaNaNaNaNaNaNaNaNaNaNaNaNaNaNaNaNaNaNaNaNaNaNaNaNaNaNaNa(I323
I728
tp114
aNaNaNaNaNaNaNaNaNaNaNaNaNaNaNaNaNaNaNaNaNaNaNaNaNaNaNaNaNaNaNaNaNaNaNaNaNaNaNaNaNaNaNaNaNaNaNaNaNa(I303
I727
tp115
aNaNaNaNaNaNaNaNaNaNaNaNaNaNaNaNaNaNaNaNaNaNaNaNaNaNaNaNaNaNaNaNaNaNaNaNaNaNaNaNaNaNaNaNaNaNaNaNaNa(I283
I725
tp116
aNaNaNaNaNaNaNaNaNaNaNaNaNaNaNaNaNaNaNaNaNaNaNaNaNaNaNaNaNaNaNaNaNaNaNaNaNaNaNaNaNaNaNaNaNaNaNaNaNa(I269
I721
tp117
aNaNaNaNaNaNaNaNaNaNaNaNaNaNaNaNaNaNaNaNaNaNaNaNaNaNaNaNaNaNaNaNaNaNaNaNaNaNaNaNaNaNaNaNaNaNaNaNaNa(I249
I716
tp118
aNaNaNaNaNaNaNaNaNaNaNaNaNaNaNaNaNaNaNaNaNaNaNaNaNaNaNaNaNaNaNaNaNaNaNaNaNaNaNaNaNaNaNaNaNaNaNaNaNa(I231
I709
tp119
aNaNaNaNaNaNaNaNaNaNaNaNaNaNaNaNaNaNaNaNaNaNaNaNaNaNaNaNaNaNaNaNaNaNaNaNaNaNaNaNaNaNaNaNaNaNaNaNaNa(I213
I701
tp120
aNaNaNaNaNaNaNaNaNaNaNaNaNaNaNaNaNaNaNaNaNaNaNaNaNaNaNaNaNaNaNaNaNaNaNaNaNaNaNaNaNaNaNaNaNaNaNaNaNa(I195
I691
tp121
aNaNaNaNaNaNaNaNaNaNaNaNaNaNaNaNaNaNaNaNaNaNaNaNaNaNaNaNaNaNaNaNaNaNaNaNaNaNaNaNaNaNaNaNaNaNaNaNaNa(I179
I679
tp122
aNaNaNaNaNaNaNaNaNaNaNaNaNaNaNaNaNaNaNaNaNaNaNaNaNaNaNaNaNaNaNaNaNaNaNaNaNaNaNaNaNaNaNaNaNaNaNaNaNa(I163
I667
tp123
aNaNaNaNaNaNaNaNaNaNaNaNaNaNaNaNaNaNaNaNaNaNaNaNaNaNaNaNaNaNaNaNaNaNaNaNaNaNaNaNaNaNaNaNaNaNaNaNaNa(I152
I657
tp124
aNaNaNaNaNaNaNaNaNaNaNaNaNaNaNaNaNaNaNaNaNaNaNaNaNaNaNaNaNaNaNaNaNaNaNaNaNaNaNaNaNaNaNaNaNaNaNaNaNa(I138
I642
tp125
aNaNaNaNaNaNaNaNaNaNaNaNaNaNaNaNaNaNaNaNaNaNaNaNaNaNaNaNaNaNaNaNaNaNaNaNaNaNaNaNaNaNaNaNaNaNaNaNaNa(I126
I626
tp126
aNaNaNaNaNaNaNaNaNaNaNaNaNaNaNaNaNaNaNaNaNaNaNaNaNaNaNaNaNaNaNaNaNaNaNaNaNaNaNaNaNaNaNaNaNaNaNaNaNa(I115
I610
tp127
aNaNaNaNaNaNaNaNaNaNaNaNaNaNaNaNaNaNaNaNaNaNaNaNaNaNaNaNaNaNaNaNaNaNaNaNaNaNaNaNaNaNaNaNaNaNaNaNaNa(I105
I592
tp128
aNaNaNaNaNaNaNaNaNaNaNaNaNaNaNaNaNaNaNaNaNaNaNaNaNaNaNaNaNaNaNaNaNaNaNaNaNaNaNaNaNaNaNaNaNaNaNaNaNa(I97
I574
tp129
aNaNaNaNaNaNaNaNaNaNaNaNaNaNaNaNaNaNaNaNaNaNaNaNaNaNaNaNaNaNaNaNaNaNaNaNaNaNaNaNaNaNaNaNaNaNaNaNaNa(I91
I560
tp130
aNaNaNaNaNaNaNaNaNaNaNaNaNaNaNaNaNaNaNaNaNaNaNaNaNaNaNaNaNaNaNaNaNaNaNaNaNaNaNaNaNaNaNaNaNaNaNaNaNa(I85
I541
tp131
aNaNaNaNaNaNaNaNaNaNaNaNaNaNaNaNaNaNaNaNaNaNaNaNaNaNaNaNaNaNaNaNaNaNaNaNaNaNaNaNaNaNaNaNaNaNaNaNaNa(I81
I522
tp132
aNaNaNaNaNaNaNaNaNaNaNaNaNaNaNaNaNaNaNaNaNaNaNaNaNaNaNaNaNaNaNaNaNaNaNaNaNaNaNaNaNaNaNaNaNaNaNaNaNa(I79
I502
tp133
aNaNaNaNaNaNaNaNaNaNaNaNaNaNaNaNaNaNaNaNaNaNaNaNaNaNaNaNaNaNaNaNaNaNaNaNaNaNaNaNaNaNaNaNaNaNaNaNaNa(I78
I482
tp134
aNaNaNaNaNaNaNaNaNaNaNaNaNaNaNaNaNaNaNaNaNaNaNaNaNaNaNaNaNaNaNaNaNaNaNaNaNaNaNaNaNaNaNaNaNaNaNaNaNa(I78
I462
tp135
aNaNaNaNaNaNaNaNaNaNaNaNaNaNaNaNaNaNaNaNaNaNaNaNaNaNaNaNaNaNaNaNaNaNaNaNaNaNaNaNaNaNaNaNaNaNaNaNaNa(I80
I442
tp136
aNaNaNaNaNaNaNaNaNaNaNaNaNaNaNaNaNaNaNaNaNaNaNaNaNaNaNaNaNaNaNaNaNaNaNaNaNaNaNaNaNaNaNaNaNaNaNaNaNa(I83
I427
tp137
aNaNaNaNaNaNaNaNaNaNaNaNaNaNaNaNaNaNaNaNaNaNaNaNaNaNaNaNaNaNaNaNaNaNaNaNaNaNaNaNaNaNaNaNaNaNaNaNaNa(I88
I408
tp138
aNaNaNaNaNaNaNaNaNaNaNaNaNaNaNaNaNaNaNaNaNaNaNaNaNaNaNaNaNaNaNaNaNaNaNaNaNaNaNaNaNaNaNaNaNaNaNaNaNa(I94
I389
tp139
aNaNaNaNaNaNaNaNaNaNaNaNaNaNaNaNaNaNaNaNaNaNaNaNaNaNaNaNaNaNaNaNaNaNaNaNaNaNaNaNaNaNaNaNaNaNaNaNaNa(I102
I371
tp140
aNaNaNaNaNaNaNaNaNaNaNaNaNaNaNaNaNaNaNaNaNaNaNaNaNaNaNaNaNaNaNaNaNaNaNaNaNaNaNaNaNaNaNaNaNaNaNaNaNa(I111
I353
tp141
aNaNaNaNaNaNaNaNaNaNaNaNaNaNaNaNaNaNaNaNaNaNaNaNaNaNaNaNaNaNaNaNaNaNaNaNaNaNaNaNaNaNaNaNaNaNaNaNaNa(I122
I336
tp142
aNaNaNaNaNaNaNaNaNaNaNaNaNaNaNaNaNaNaNaNaNaNaNaNaNaNaNaNaNaNaNaNaNaNaNaNaNaNaNaNaNaNaNaNaNaNaNaNaNa(I131
I324
tp143
aNaNaNaNaNaNaNaNaNaNaNaNaNaNaNaNaNaNaNaNaNaNaNaNaNaNaNaNaNaNaNaNaNaNaNaNaNaNaNaNaNaNaNaNaNaNaNaNaNa(I144
I309
tp144
aNaNaNaNaNaNaNaNaNaNaNaNaNaNaNaNaNaNaNaNaNaNaNaNaNaNaNaNaNaNaNaNaNaNaNaNaNaNaNaNaNaNaNaNaNaNaNaNaNa(I158
I295
tp145
aNaNaNaNaNaNaNaNaNaNaNaNaNaNaNaNaNaNaNaNaNaNaNaNaNaNaNaNaNaNaNaNaNaNaNaNaNaNaNaNaNaNaNaNaNaNaNaNaNa(I173
I282
tp146
aNaNaNaNaNaNaNaNaNaNaNaNaNaNaNaNaNaNaNaNaNaNaNaNaNaNaNaNaNaNaNaNaNaNaNaNaNaNaNaNaNaNaNaNaNaNaNaNaNa(I190
I270
tp147
aNaNaNaNaNaNaNaNaNaNaNaNaNaNaNaNaNaNaNaNaNaNaNaNaNaNaNaNaNaNaNaNaNaNaNaNaNaNaNaNaNaNaNaNaNaNaNaNaNa(I207
I260
tp148
aNaNaNaNaNaNaNaNaNaNaNaNaNaNaNaNaNaNaNaNaNaNaNaNaNaNaNaNaNaNaNaNaNaNaNaNaNaNaNaNaNaNaNaNaNaNaNaNaNaNaNaNaNaNaNaNaNaNaNaNaNaNaNaNaNaNa(I225
I251
tp149
aNaNaNaNaNaNaNaNaNaNaNaNaNaNaNaNaNaNaNaNaNaNaNaNaNaNaNaNaNaNaNaNaNaNa(I234
I247
tp150
aNaNaNaNaNaNaNaNaNaNaNaNaNaNaNaNaNaNaNaNaNaNaNaNaNaNaNaNaNaNaNaNaNaNaNaNaNaNaNaNaNaNaNaNaNaNaNasS'gaze_list'
p151
(lp152
NaNaNaNaNaNaNaNaNaNaNaNaNaNaNaNaNaNaNaNaNaNaNaNaNaNaNaNaNaNaNaNaNaNaNaNaNaNaNaNaNaNaNaNaNaNaNaNaNaNaNaNaNaNaNaNaNaNaNaNaNaNaNaNaNaNaNaNaNaNaNaNaNaNaNaNaNaNaNaNaNaNaNaNaNaNaNaNaNaNaNaNaNaNaNaNaNaNaNaNaNaNaNaNaNaNaNaNaNaNaNaNaNaNaNaNaNaNaNaNaNaNaNaNaNaNaNaNaNaNaNaNaNaNaNaNaNaNaNaNaNaNaNaNaNaNaNaNaNaNaNaNaNaNaNaNaNaNaNaNaNaNaNaNaNaNaNaNaNaNaNaNaNaNaNaNaNaNaNaNaNaNaNaNaNaNaNaNaNaNaNaNaNaNaNaNaNaNaNaNaNaNaNaNaNaNaNaNaNaNaNaNaNaNaNaNaNaNaNaNaNaNaNaNaNaNaNaNaNaNaNaNaNaNaNaNaNaNaNaNaNaNaNaNaNaNaNaNaNaNaNaNaNaNaNaNaNaNaNaNaNaNaNaNaNaNaNaNaNaNaNaNaNaNaNaNaNaNaNaNaNaNaNaNaNaNaNaNaNaNaNaNaNaNaNaNaNaNaNaNaNaNaNaNaNaNaNaNaNaNaNaNaNaNaNaNaNaNaNaNaNaNaNaNaNaNaNaNaNaNaNaNaNaNaNaNaNaNaNaNaNaNaNaNaNaNaNaNaNaNaNaNaNaNaNaNaNaNaNaNaNaNaNaNaNaNaNaNaNaNaNaNaNaNaNaNaNaNaNaNaNaNaNaNaNaNaNaNaNaNaNaNaNaNaNaNaNaNaNaNaNaNaNaNaNaNaNaNaNaNaNaNaNaNaNaNaNaNaNaNaNaNaNaNaNaNaNaNaNaNaNaNaNaNaNaNaNaNaNaNaNaNaNaNaNaNaNaNaNaNaNaNaNaNaNaNaNaNaNaNaNaNaNaNaNaNaNaNaNaNaNaNaNaNaNaNaNaNaNaNaNaNaNaNaNaNaNaNaNaNaNaNaNaNaNaNaNaNaNaNaNaNaNaNaNaNaNaNaNaNaNaNaNaNaNaNaNaNaNaNaNaNaNaNaNaNaNaNaNaNaNaNaNaNaNaNaNaNaNaNaNaNaNaNaNaNaNaNaNaNaNaNaNaNaNaNaNaNaNaNaNaNaNaNaNaNaNaNaNaNaNaNaNaNaNaNaNaNaNaNaNaNaNaNaNaNaNaNaNaNaNaNaNaNaNaNaNaNaNaNaNaNaNaNaNaNaNaNaNaNaNaNaNaNaNaNaNaNaNaNaNaNaNaNaNaNaNaNaNaNaNaNaNaNaNaNaNaNaNaNaNaNaNaNaNaNaNaNaNaNaNaNaNaNaNaNaNaNaNaNaNaNaNaNaNaNaNaNaNaNaNaNaNaNaNaNaNaNaNaNaNaNaNaNaNaNaNaNaNaNaNaNaNaNaNaNaNaNaNaNaNaNaNaNaNaNaNaNaNaNaNaNaNaNaNaNaNaNaNaNaNaNaNaNaNaNaNaNaNaNaNaNaNaNaNaNaNaNaNaNaNaNaNaNaNaNaNaNaNaNaNaNaNaNaNaNaNaNaNaNaNaNaNaNaNaNaNaNaNaNaNaNaNaNaNaNaNaNaNaNaNaNaNaNaNaNaNaNaNaNaNaNaNaNaNaNaNaNaNaNaNaNaNaNaNaNaNaNaNaNaNaNaNaNaNaNaNaNaNaNaNaNaNaNaNaNaNaNaNaNaNaNaNaNaNaNaNaNaNaNaNaNaNaNaNaNaNaNaNaNaNaNaNaNaNaNaNaNaNaNaNaNaNaNaNaNaNaNaNaNaNaNaNaNaNaNaNaNaNaNaNaNaNaNaNaNaNaNaNaNaNaNaNaNaNaNaNaNaNaNaNaNaNaNaNaNaNaNaNaNaNaNaNaNaNaNaNaNaNaNaNaNaNaNaNaNaNaNaNaNaNaNaNaNaNaNaNaNaNaNaNaNaNaNaNaNaNaNaNaNaNaNaNaNaNaNaNaNaNaNaNaNaNaNaNaNaNaNaNaNaNaNaNaNaNaNaNaNaNaNaNaNaNaNaNaNaNaNaNaNaNaNaNaNaNaNaNaNaNaNaNaNaNaNaNaNaNaNaNaNaNaNaNaNaNaNaNaNaNaNaNaNaNaNaNaNaNaNaNaNaNaNaNaNaNaNaNaNaNaNaNaNaNaNaNaNaNaNaNaNaNaNaNaNaNaNaNaNaNaNaNaNaNaNaNaNaNaNaNaNaNaNaNaNaNaNaNaNaNaNaNaNaNaNaNaNaNaNaNaNaNaNaNaNaNaNaNaNaNaNaNaNaNaNaNaNaNaNaNaNaNaNaNaNaNaNaNaNaNaNaNaNaNaNaNaNaNaNaNaNaNaNaNaNaNaNaNaNaNaNaNaNaNaNaNaNaNaNaNaNaNaNaNaNaNaNaNaNaNaNaNaNaNaNaNaNaNaNaNaNaNaNaNaNaNaNaNaNaNaNaNaNaNaNaNaNaNaNaNaNaNaNaNaNaNaNaNaNaNaNaNaNaNaNaNaNaNaNaNaNaNaNaNaNaNaNaNaNaNaNaNaNaNaNaNaNaNaNaNaNaNaNaNaNaNaNaNaNaNaNaNaNaNaNaNaNaNaNaNaNaNaNaNaNaNaNaNaNaNaNaNaNaNaNaNaNaNaNaNaNaNaNaNaNaNaNaNaNaNaNaNaNaNaNaNaNaNaNaNaNaNaNaNaNaNaNaNaNaNaNaNaNaNaNaNaNaNaNaNaNaNaNaNaNaNaNaNaNaNaNaNaNaNaNaNaNaNaNaNaNaNaNaNaNaNaNaNaNaNaNaNaNaNaNaNaNaNaNaNaNaNaNa(I0
I0
tp153
aNaNaNaNaNaNaNaNaNaNaNaNaNaNaNaNaNaNaNaNaNaNaNaNaNaNaNaNaNaNaNaNa(I0
I0
tp154
aNaNaNaNaNaNaNaNaNaNaNaNaNaNaNaNaNaNaNaNaNaNaNaNaNaNaNaNaNaNaNaNaNa(I0
I0
tp155
aNaNaNaNaNaNaNaNaNaNaNaNaNaNaNaNaNaNaNaNaNaNaNaNaNaNaNaNaNaNaNaNaNaNaNaNaNaNaNaNaNaNaNaNaNa(I0
I0
tp156
aNaNaNaNaNaNaNaNaNaNaNaNaNaNaNaNaNaNaNaNaNaNaNaNaNaNaNaNaNaNaNaNa(I328
I729
tp157
aNaNaNaNaNaNaNaNaNaNaNaNaNaNaNaNaNaNaNaNaNaNaNaNaNaNaNaNaNaNaNaNaNaNaNa(I284
I677
tp158
aNaNaNaNaNaNaNaNaNaNaNaNaNaNaNaNaNaNaNaNaNaNaNaNaNaNaNaNaNaNaNaNaNaNa(I327
I693
tp159
aNaNaNaNaNaNaNaNaNaNaNaNaNaNaNaNaNaNaNaNaNaNaNaNaNaNaNaNaNaNaNaNaNa(I303
I681
tp160
aNaNaNaNaNaNaNaNaNaNaNaNaNaNaNaNaNaNaNaNaNaNaNaNaNaNaNaNaNaNaNaNaNaNaNaNaNaNaNaNaNaNaNa(I306
I681
tp161
aNaNaNaNaNaNaNaNaNaNaNaNaNaNaNaNaNaNaNaNaNaNaNaNaNaNaNaNaNaNaNaNaNaNaNa(I304
I679
tp162
aNaNaNaNaNaNaNaNaNaNaNaNaNaNaNaNaNaNaNaNaNaNaNaNaNaNaNaNaNaNaNaNaNaNa(I314
I683
tp163
aNaNaNaNaNaNaNaNaNaNaNaNaNaNaNaNaNaNaNaNaNaNaNaNaNaNaNaNaNaNaNaNaNa(I301
I682
tp164
aNaNaNaNaNaNaNaNaNaNaNaNaNaNaNaNaNaNaNaNaNaNaNaNaNaNaNaNaNaNaNaNaNaNaNaNaNaNaNaNaNaNaNaNa(I294
I680
tp165
aNaNaNaNaNaNaNaNaNaNaNaNaNaNaNaNaNaNaNaNaNaNaNaNaNaNaNaNaNaNaNaNa(I285
I679
tp166
aNaNaNaNaNaNaNaNaNaNaNaNaNaNaNaNaNaNaNaNaNaNaNaNaNaNaNaNaNaNaNaNaNa(I143
I644
tp167
aNaNaNaNaNaNaNaNaNaNaNaNaNaNaNaNaNaNaNaNaNaNaNaNaNaNaNaNaNaNaNaNaNaNaNaNaNaNaNaNaNaNaNa(I268
I677
tp168
aNaNaNaNaNaNaNaNaNaNaNaNaNaNaNaNaNaNaNaNaNaNaNaNaNaNaNaNaNaNaNaNaNa(I234
I665
tp169
aNaNaNaNaNaNaNaNaNaNaNaNaNaNaNaNaNaNaNaNaNaNaNaNaNaNaNaNaNaNaNaNaNa(I227
I660
tp170
aNaNaNaNaNaNaNaNaNaNaNaNaNaNaNaNaNaNaNaNaNaNaNaNaNaNaNaNaNaNaNaNaNa(I212
I656
tp171
aNaNaNaNaNaNaNaNaNaNaNaNaNaNaNaNaNaNaNaNaNaNaNaNaNaNaNaNaNaNaNaNaNaNaNaNaNaNaNaNaNaNaNa(I206
I653
tp172
aNaNaNaNaNaNaNaNaNaNaNaNaNaNaNaNaNaNaNaNaNaNaNaNaNaNaNaNaNaNaNaNaNa(I201
I650
tp173
aNaNaNaNaNaNaNaNaNaNaNaNaNaNaNaNaNaNaNaNaNaNaNaNaNaNaNaNaNaNaNaNaNaNa(I203
I647
tp174
aNaNaNaNaNaNaNaNaNaNaNaNaNaNaNaNaNaNaNaNaNaNaNaNaNaNaNaNaNaNaNaNaNaNaNaNaNaNaNaNaNaNaNaNaNa(I98
I552
tp175
aNaNaNaNaNaNaNaNaNaNaNaNaNaNaNaNaNaNaNaNaNaNaNaNaNaNaNaNaNaNaNaNaNa(I56
I533
tp176
aNaNaNaNaNaNaNaNaNaNaNaNaNaNaNaNaNaNaNaNaNaNaNaNaNaNaNaNaNaNaNaNaNa(I94
I533
tp177
aNaNaNaNaNaNaNaNaNaNaNaNaNaNaNaNaNaNaNaNaNaNaNaNaNaNaNaNaNaNaNaNaNa(I100
I533
tp178
aNaNaNaNaNaNaNaNaNaNaNaNaNaNaNaNaNaNaNaNaNaNaNaNaNaNaNaNaNaNaNaNaNaNaNaNaNaNaNaNaNaNaNa(I103
I533
tp179
aNaNaNaNaNaNaNaNaNaNaNaNaNaNaNaNaNaNaNaNaNaNaNaNaNaNaNaNaNaNaNaNaNa(I163
I525
tp180
aNaNaNaNaNaNaNaNaNaNaNaNaNaNaNaNaNaNaNaNaNaNaNaNaNaNaNaNaNaNaNaNaNa(I163
I526
tp181
aNaNaNaNaNaNaNaNaNaNaNaNaNaNaNaNaNaNaNaNaNaNaNaNaNaNaNaNaNaNaNaNaNa(I161
I528
tp182
aNaNaNaNaNaNaNaNaNaNaNaNaNaNaNaNaNaNaNaNaNaNaNaNaNaNaNaNaNaNaNaNaNaNaNaNaNaNaNaNaNaNaNa(I161
I527
tp183
aNaNaNaNaNaNaNaNaNaNaNaNaNaNaNaNaNaNaNaNaNaNaNaNaNaNaNaNaNaNaNaNaNa(I141
I526
tp184
aNaNaNaNaNaNaNaNaNaNaNaNaNaNaNaNaNaNaNaNaNaNaNaNaNaNaNaNaNaNaNaNa(I118
I522
tp185
aNaNaNaNaNaNaNaNaNaNaNaNaNaNaNaNaNaNaNaNaNaNaNaNaNaNaNaNaNaNaNaNaNaNaNaNaNaNaNaNaNaNaNaNa(I103
I514
tp186
aNaNaNaNaNaNaNaNaNaNaNaNaNaNaNaNaNaNaNaNaNaNaNaNaNaNaNaNaNaNaNaNaNaNa(I100
I509
tp187
aNaNaNaNaNaNaNaNaNaNaNaNaNaNaNaNaNaNaNaNaNaNaNaNaNaNaNaNaNaNaNaNaNa(I96
I504
tp188
aNaNaNaNaNaNaNaNaNaNaNaNaNaNaNaNaNaNaNaNaNaNaNaNaNaNaNaNaNaNaNaNaNaNaNaNaNaNaNaNaNaNaNaNa(I88
I498
tp189
aNaNaNaNaNaNaNaNaNaNaNaNaNaNaNaNaNaNaNaNaNaNaNaNaNaNaNaNaNaNaNaNaNa(I96
I497
tp190
aNaNaNaNaNaNaNaNaNaNaNaNaNaNaNaNaNaNaNaNaNaNaNaNaNaNaNaNaNaNaNaNaNa(I96
I494
tp191
aNaNaNaNaNaNaNaNaNaNaNaNaNaNaNaNaNaNaNaNaNaNaNaNaNaNaNaNaNaNaNaNaNaNa(I91
I488
tp192
aNaNaNaNaNaNaNaNaNaNaNaNaNaNaNaNaNaNaNaNaNaNaNaNaNaNaNaNaNaNaNaNaNaNaNaNaNaNaNaNaNaNa(I97
I486
tp193
aNaNaNaNaNaNaNaNaNaNaNaNaNaNaNaNaNaNaNaNaNaNaNaNaNaNaNaNaNaNaNaNaNa(I93
I481
tp194
aNaNaNaNaNaNaNaNaNaNaNaNaNaNaNaNaNaNaNaNaNaNaNaNaNaNaNaNaNaNaNaNaNa(I222
I394
tp195
aNaNaNaNaNaNaNaNaNaNaNaNaNaNaNaNaNaNaNaNaNaNaNaNaNaNaNaNaNaNaNaNaNaNaNaNaNaNaNaNaNaNa(I230
I394
tp196
aNaNaNaNaNaNaNaNaNaNaNaNaNaNaNaNaNaNaNaNaNaNaNaNaNaNaNaNaNaNaNaNaNa(I231
I400
tp197
aNaNaNaNaNaNaNaNaNaNaNaNaNaNaNaNaNaNaNaNaNaNaNaNaNaNaNaNaNaNaNaNaNa(I0
I0
tp198
aNaNaNaNaNaNaNaNaNaNaNaNaNaNaNaNaNaNaNaNaNaNaNaNaNaNaNaNaNaNaNaNaNa(I203
I395
tp199
aNaNaNaNaNaNaNaNaNaNaNaNaNaNaNaNaNaNaNaNaNaNaNaNaNaNaNaNaNaNaNaNaNaNaNaNaNaNaNaNaNaNaNaNaNa(I330
I154
tp200
aNaNaNaNaNaNaNaNaNaNaNaNaNaNaNaNaNaNaNaNaNaNaNaNaNaNaNaNaNaNaNaNaNaNaNa(I0
I0
tp201
aNaNaNaNaNaNaNaNaNaNaNaNaNaNaNaNaNaNaNaNaNaNaNaNaNaNaNaNaNaNaNaNaNaNa(I0
I0
tp202
aNaNaNaNaNaNaNaNaNaNaNaNaNaNaNaNaNaNaNaNaNaNaNaNaNaNaNaNaNaNaNaNa(I228
I325
tp203
aNaNaNaNaNaNaNaNaNaNaNaNaNaNaNaNaNaNaNaNaNaNaNaNaNaNaNaNaNaNaNaNaNa(I156
I375
tp204
aNaNaNaNaNaNaNaNaNaNaNaNaNaNaNaNaNaNaNaNaNaNaNaNaNaNaNaNaNaNaNaNaNaNaNaNaNaNaNaNaNaNaNa(I0
I0
tp205
aNaNaNaNaNaNaNaNaNaNaNaNaNaNaNaNaNaNaNaNaNaNaNaNaNaNaNaNaNaNaNaNaNaNa(I324
I102
tp206
aNaNaNaNaNaNaNaNaNaNaNaNaNaNaNaNaNaNaNaNaNaNaNaNaNaNaNaNaNaNaNaNaNa(I0
I0
tp207
aNaNaNaNaNaNaNaNaNaNaNaNaNaNaNaNaNaNaNaNaNaNaNaNaNaNaNaNaNaNaNaNaNaNaNaNaNaNaNaNaNaNaNaNaNa(I0
I0
tp208
aNaNaNaNaNaNaNaNaNaNaNaNaNaNaNaNaNaNaNaNaNaNaNaNaNaNaNaNaNaNaNaNaNa(I0
I0
tp209
aNaNaNaNaNaNaNaNaNaNaNaNaNaNaNaNaNaNaNaNaNaNaNaNaNaNaNaNaNaNaNaNaNa(I0
I0
tp210
aNaNaNaNaNaNaNaNaNaNaNaNaNaNaNaNaNaNaNaNaNaNaNaNaNaNaNaNaNaNaNaNa(I369
I90
tp211
aNaNaNaNaNaNaNaNaNaNaNaNaNaNaNaNaNaNaNaNaNaNaNaNaNaNaNaNaNaNaNaNaNaNaNaNaNaNaNaNaNaNaNaNa(I390
I101
tp212
aNaNaNaNaNaNaNaNaNaNaNaNaNaNaNaNaNaNaNaNaNaNaNaNaNaNaNaNaNaNaNaNaNaNa(I450
I170
tp213
aNaNaNaNaNaNaNaNaNaNaNaNaNaNaNaNaNaNaNaNaNaNaNaNaNaNaNaNaNaNaNaNa(I524
I-149
tp214
aNaNaNaNaNaNaNaNaNaNaNaNaNaNaNaNaNaNaNaNaNaNaNaNaNaNaNaNaNaNaNaNaNaNaNaNaNaNaNaNaNaNa(I491
I-22
tp215
aNaNaNaNaNaNaNaNaNaNaNaNaNaNaNaNaNaNaNaNaNaNaNaNaNaNaNaNaNaNaNaNaNa(I478
I25
tp216
aNaNaNaNaNaNaNaNaNaNaNaNaNaNaNaNaNaNaNaNaNaNaNaNaNaNaNaNaNaNaNaNaNa(I479
I79
tp217
aNaNaNaNaNaNaNaNaNaNaNaNaNaNaNaNaNaNaNaNaNaNaNaNaNaNaNaNaNaNaNaNaNaNaNaNaNaNaNaNaNaNaNaNa(I422
I252
tp218
aNaNaNaNaNaNaNaNaNaNaNaNaNaNaNaNaNaNaNaNaNaNaNaNaNaNaNaNaNaNaNaNaNa(I429
I246
tp219
aNaNaNaNaNaNaNaNaNaNaNaNaNaNaNaNaNaNaNaNaNaNaNaNaNaNaNaNaNaNaNaNaNa(I442
I247
tp220
aNaNaNaNaNaNaNaNaNaNaNaNaNaNaNaNaNaNaNaNaNaNaNaNaNaNaNaNaNaNaNaNaNaNa(I446
I247
tp221
aNaNaNaNaNaNaNaNaNaNaNaNaNaNaNaNaNaNaNaNaNaNaNaNaNaNaNaNaNaNaNaNaNaNaNaNaNaNaNaNaNaNaNa(I441
I249
tp222
aNaNaNaNaNaNaNaNaNaNaNaNaNaNaNaNaNaNaNaNaNaNaNaNaNaNaNaNaNaNaNaNaNa(I445
I250
tp223
aNaNaNaNaNaNaNaNaNaNaNaNaNaNaNaNaNaNaNaNaNaNaNaNaNaNaNaNaNaNaNaNaNa(I453
I252
tp224
aNaNaNaNaNaNaNaNaNaNaNaNaNaNaNaNaNaNaNaNaNaNaNaNaNaNaNaNaNaNaNaNaNaNaNaNaNaNaNaNaNaNa(I459
I253
tp225
aNaNaNaNaNaNaNaNaNaNaNaNaNaNaNaNaNaNaNaNaNaNaNaNaNaNaNaNaNaNaNaNaNa(I466
I255
tp226
aNaNaNaNaNaNaNaNaNaNaNaNaNaNaNaNaNaNaNaNaNaNaNaNaNaNaNaNaNaNaNaNaNa(I471
I256
tp227
aNaNaNaNaNaNaNaNaNaNaNaNaNaNaNaNaNaNaNaNaNaNaNaNaNaNaNaNaNaNaNaNaNaNaNaNaNaNaNaNaNaNaNaNa(I476
I258
tp228
aNaNaNaNaNaNaNaNaNaNaNaNaNaNaNaNaNaNaNaNaNaNaNaNaNaNaNaNaNaNaNaNa(I485
I260
tp229
aNaNaNaNaNaNaNaNaNaNaNaNaNaNaNaNaNaNaNaNaNaNaNaNaNaNaNaNaNaNaNaNaNaNaNaNaNa(I489
I268
tp230
aNaNaNaNaNaNaNaNaNaNaNaNaNaNaNaNaNaNaNaNaNaNaNaNaNaNaNaNaNaNaNaNa(I599
I349
tp231
aNaNaNaNaNaNaNaNaNaNaNaNaNaNaNaNaNaNaNaNaNaNaNaNaNaNaNaNaNaNaNaNa(I644
I351
tp232
aNaNaNaNaNaNaNaNaNaNaNaNaNaNaNaNaNaNaNaNaNaNaNaNaNaNaNaNaNaNaNaNaNaNaNaNaNaNaNaNaNaNaNa(I614
I355
tp233
aNaNaNaNaNaNaNaNaNaNaNaNaNaNaNaNaNaNaNaNaNaNaNaNaNaNaNaNaNaNaNaNaNaNa(I605
I357
tp234
aNaNaNaNaNaNaNaNaNaNaNaNaNaNaNaNaNaNaNaNaNaNaNaNaNaNaNaNaNaNaNaNaNaNa(I600
I359
tp235
aNaNaNaNaNaNaNaNaNaNaNaNaNaNaNaNaNaNaNaNaNaNaNaNaNaNaNaNaNaNaNaNaNaNaNaNaNaNaNaNaNaNaNa(I599
I361
tp236
aNaNaNaNaNaNaNaNaNaNaNaNaNaNaNaNaNaNaNaNaNaNaNaNaNaNaNaNaNaNaNaNa(I608
I365
tp237
aNaNaNaNaNaNaNaNaNaNaNaNaNaNaNaNaNaNaNaNaNaNaNaNaNaNaNaNaNaNaNaNaNaNaNa(I615
I368
tp238
aNaNaNaNaNaNaNaNaNaNaNaNaNaNaNaNaNaNaNaNaNaNaNaNaNaNaNaNaNaNaNaNaNaNa(I614
I371
tp239
aNaNaNaNaNaNaNaNaNaNaNaNaNaNaNaNaNaNaNaNaNaNaNaNaNaNaNaNaNaNaNaNaNaNaNaNaNaNaNaNaNaNaNaNa(I612
I374
tp240
aNaNaNaNaNaNaNaNaNaNaNaNaNaNaNaNaNaNaNaNaNaNaNaNaNaNaNaNaNaNaNaNaNa(I612
I377
tp241
aNaNaNaNaNaNaNaNaNaNaNaNaNaNaNaNaNaNaNaNaNaNaNaNaNaNaNaNaNaNaNaNaNa(I610
I379
tp242
aNaNaNaNaNaNaNaNaNaNaNaNaNaNaNaNaNaNaNaNaNaNaNaNaNaNaNaNaNaNaNaNaNa(I610
I382
tp243
aNaNaNaNaNaNaNaNaNaNaNaNaNaNaNaNaNaNaNaNaNaNaNaNaNaNaNaNaNaNaNaNaNaNaNaNaNaNaNaNaNaNaNaNa(I615
I387
tp244
aNaNaNaNaNaNaNaNaNaNaNaNaNaNaNaNaNaNaNaNaNaNaNaNaNaNaNaNaNaNaNaNa(I564
I537
tp245
aNaNaNaNaNaNaNaNaNaNaNaNaNaNaNaNaNaNaNaNaNaNaNaNaNaNaNaNaNaNaNaNaNa(I635
I548
tp246
aNaNaNaNaNaNaNaNaNaNaNaNaNaNaNaNaNaNaNaNaNaNaNaNaNaNaNaNaNaNaNaNaNaNaNaNaNaNaNaNaNaNaNa(I624
I550
tp247
aNaNaNaNaNaNaNaNaNaNaNaNaNaNaNaNaNaNaNaNaNaNaNaNaNaNaNaNaNaNaNaNaNaNa(I619
I551
tp248
aNaNaNaNaNaNaNaNaNaNaNaNaNaNaNaNaNaNaNaNaNaNaNaNaNaNaNaNaNaNaNaNaNaNa(I604
I554
tp249
aNaNaNaNaNaNaNaNaNaNaNaNaNaNaNaNaNaNaNaNaNaNaNaNaNaNaNaNaNaNaNaNaNa(I612
I565
tp250
aNaNaNaNaNaNaNaNaNaNaNaNaNaNaNaNaNaNaNaNaNaNaNaNaNaNaNaNaNaNaNaNaNaNaNaNaNaNaNaNaNaNaNaNa(I596
I570
tp251
aNaNaNaNaNaNaNaNaNaNaNaNaNaNaNaNaNaNaNaNaNaNaNaNaNaNaNaNaNaNaNaNaNa(I595
I572
tp252
aNaNaNaNaNaNaNaNaNaNaNaNaNaNaNaNaNaNaNaNaNaNaNaNaNaNaNaNaNaNaNaNaNaNa(I579
I576
tp253
aNaNaNaNaNaNaNaNaNaNaNaNaNaNaNaNaNaNaNaNaNaNaNaNaNaNaNaNaNaNaNaNa(I595
I578
tp254
aNaNaNaNaNaNaNaNaNaNaNaNaNaNaNaNaNaNaNaNaNaNaNaNaNaNaNaNaNaNaNaNaNaNaNaNaNaNaNaNaNaNaNa(I472
I664
tp255
aNaNaNaNaNaNaNaNaNaNaNaNaNaNaNaNaNaNaNaNaNaNaNaNaNaNaNaNaNaNaNaNaNa(I508
I646
tp256
aNaNaNaNaNaNaNaNaNaNaNaNaNaNaNaNaNaNaNaNaNaNaNaNaNaNaNaNaNaNaNaNaNa(I492
I650
tp257
aNaNaNaNaNaNaNaNaNaNaNaNaNaNaNaNaNaNaNaNaNaNaNaNaNaNaNaNaNaNaNaNaNaNaNaNaNaNaNaNaNaNaNa(I483
I652
tp258
aNaNaNaNaNaNaNaNaNaNaNaNaNaNaNaNaNaNaNaNaNaNaNaNaNaNaNaNaNaNaNaNa(I468
I656
tp259
aNaNaNaNaNaNaNaNaNaNaNaNaNaNaNaNaNaNaNaNaNaNaNaNaNaNaNaNaNaNaNaNaNa(I460
I663
tp260
aNaNaNaNaNaNaNaNaNaNaNaNaNaNaNaNaNaNaNaNaNaNaNaNaNaNaNaNaNaNaNaNaNaNaNaNaNaNaNaNaNaNa(I514
I655
tp261
aNaNaNaNaNaNaNaNaNaNaNaNaNaNaNaNaNaNaNaNaNaNaNaNaNaNaNaNaNaNaNaNa(I426
I681
tp262
aNaNaNaNaNaNaNaNaNaNaNaNaNaNaNaNaNaNaNaNaNaNaNaNaNaNaNaNaNaNaNaNaNaNaNa(I417
I682
tp263
aNaNaNaNaNaNaNaNaNaNaNaNaNaNaNaNaNaNaNaNaNaNaNaNaNaNaNaNaNaNaNaNaNa(I415
I682
tp264
aNaNaNaNaNaNaNaNaNaNaNaNaNaNaNaNaNaNaNaNaNaNaNaNaNaNaNaNaNaNaNaNaNaNaNaNaNaNaNaNaNaNaNaNa(I415
I681
tp265
aNaNaNaNaNaNaNaNaNaNaNaNaNaNaNaNaNaNaNaNaNaNaNaNaNaNaNaNaNaNaNaNaNaNa(I397
I683
tp266
aNaNaNaNaNaNaNaNaNaNaNaNaNaNaNaNaNaNaNaNaNaNaNaNaNaNaNaNaNaNaNaNaNa(I380
I684
tp267
aNaNaNaNaNaNaNaNaNaNaNaNaNaNaNaNaNaNaNaNaNaNaNaNaNaNaNaNaNaNaNaNaNaNa(I381
I685
tp268
aNaNaNaNaNaNaNaNaNaNaNaNaNaNaNaNaNaNaNaNaNaNaNaNaNaNaNaNaNaNaNaNaNaNaNaNaNaNaNaNaNaNaNaNa(I355
I687
tp269
aNaNaNaNaNaNaNaNaNaNaNaNaNaNaNaNaNaNaNaNaNaNaNaNaNaNaNaNaNaNaNaNaNa(I352
I692
tp270
aNaNaNaNaNaNaNaNaNaNaNaNaNaNaNaNaNaNaNaNaNaNaNaNaNaNaNaNaNaNaNaNaNaNaNa(I347
I693
tp271
aNaNaNaNaNaNaNaNaNaNaNaNaNaNaNaNaNaNaNaNaNaNaNaNaNaNaNaNaNaNaNaNa(I349
I695
tp272
aNaNaNaNaNaNaNaNaNaNaNaNaNaNaNaNaNaNaNaNaNaNaNaNaNaNaNaNaNaNaNaNaNaNaNaNaNaNaNaNaNaNaNaNa(I344
I695
tp273
aNaNaNaNaNaNaNaNaNaNaNaNaNaNaNaNaNaNaNaNaNaNaNaNaNaNaNaNaNaNaNaNaNa(I333
I694
tp274
aNaNaNaNaNaNaNaNaNaNaNaNaNaNaNaNaNaNaNaNaNaNaNaNaNaNaNaNaNaNaNaNa(I334
I695
tp275
aNaNaNaNaNaNaNaNaNaNaNaNaNaNaNaNaNaNaNaNaNaNaNaNaNaNaNaNaNaNaNaNaNaNaNaNaNaNaNaNaNaNaNaNa(I218
I665
tp276
aNaNaNaNaNaNaNaNaNaNaNaNaNaNaNaNaNaNaNaNaNaNaNaNaNaNaNaNaNaNaNa(I147
I648
tp277
aNaNaNaNaNaNaNaNaNaNaNaNaNaNaNaNaNaNaNaNaNaNaNaNaNaNaNaNaNaNaNaNaNa(I174
I625
tp278
aNaNaNaNaNaNaNaNaNaNaNaNaNaNaNaNaNaNaNaNaNaNaNaNaNaNaNaNaNaNaNaNaNaNaNaNaNaNaNaNaNaNaNaNa(I176
I619
tp279
aNaNaNaNaNaNaNaNaNaNaNaNaNaNaNaNaNaNaNaNaNaNaNaNaNaNaNaNaNaNaNaNaNaNa(I173
I616
tp280
aNaNaNaNaNaNaNaNaNaNaNaNaNaNaNaNaNaNaNaNaNaNaNaNaNaNaNaNaNaNaNaNaNa(I165
I605
tp281
aNaNaNaNaNaNaNaNaNaNaNaNaNaNaNaNaNaNaNaNaNaNaNaNaNaNaNaNaNaNaNaNaNaNa(I157
I600
tp282
aNaNaNaNaNaNaNaNaNaNaNaNaNaNaNaNaNaNaNaNaNaNaNaNaNaNaNaNaNaNaNaNaNaNaNaNaNaNaNaNaNaNaNa(I140
I598
tp283
aNaNaNaNaNaNaNaNaNaNaNaNaNaNaNaNaNaNaNaNaNaNaNaNaNaNaNaNaNaNaNaNaNaNa(I150
I596
tp284
aNaNaNaNaNaNaNaNaNaNaNaNaNaNaNaNaNaNaNaNaNaNaNaNaNaNaNaNaNaNaNaNaNaNa(I153
I589
tp285
aNaNaNaNaNaNaNaNaNaNaNaNaNaNaNaNaNaNaNaNaNaNaNaNaNaNaNaNaNaNaNaNaNa(I99
I483
tp286
aNaNaNaNaNaNaNaNaNaNaNaNaNaNaNaNaNaNaNaNaNaNaNaNaNaNaNaNaNaNaNaNaNa(I106
I476
tp287
aNaNaNaNaNaNaNaNaNaNaNaNaNaNaNaNaNaNaNaNaNaNaNaNaNaNaNaNaNaNaNaNaNaNaNaNaNaNaNaNaNaNaNaNa(I106
I475
tp288
aNaNaNaNaNaNaNaNaNaNaNaNaNaNaNaNaNaNaNaNaNaNaNaNaNaNaNaNaNaNaNaNaNa(I102
I474
tp289
aNaNaNaNaNaNaNaNaNaNaNaNaNaNaNaNaNaNaNaNaNaNaNaNaNaNaNaNaNaNaNaNaNa(I103
I473
tp290
aNaNaNaNaNaNaNaNaNaNaNaNaNaNaNaNaNaNaNaNaNaNaNaNaNaNaNaNaNaNaNaNaNaNaNaNaNaNaNaNaNaNaNaNa(I106
I472
tp291
aNaNaNaNaNaNaNaNaNaNaNaNaNaNaNaNaNaNaNaNaNaNaNaNaNaNaNaNaNaNaNaNaNa(I105
I471
tp292
aNaNaNaNaNaNaNaNaNaNaNaNaNaNaNaNaNaNaNaNaNaNaNaNaNaNaNaNaNaNaNaNaNaNa(I114
I472
tp293
aNaNaNaNaNaNaNaNaNaNaNaNaNaNaNaNaNaNaNaNaNaNaNaNaNaNaNaNaNaNaNaNaNa(I114
I471
tp294
aNaNaNaNaNaNaNaNaNaNaNaNaNaNaNaNaNaNaNaNaNaNaNaNaNaNaNaNaNaNaNaNaNaNaNaNaNaNaNaNaNaNaNa(I110
I470
tp295
aNaNaNaNaNaNaNaNaNaNaNaNaNaNaNaNaNaNaNaNaNaNaNaNaNaNaNaNaNaNaNaNa(I50
I452
tp296
aNaNaNaNaNaNaNaNaNaNaNaNaNaNaNaNaNaNaNaNaNaNaNaNaNaNaNaNaNaNaNaNaNa(I143
I430
tp297
aNaNaNaNaNaNaNaNaNaNaNaNaNaNaNaNaNaNaNaNaNaNaNaNaNaNaNaNaNaNaNaNaNaNaNa(I156
I428
tp298
aNaNaNaNaNaNaNaNaNaNaNaNaNaNaNaNaNaNaNaNaNaNaNaNaNaNaNaNaNaNaNaNaNaNaNaNaNaNaNaNaNaNaNa(I141
I420
tp299
aNaNaNaNaNaNaNaNaNaNaNaNaNaNaNaNaNaNaNaNaNaNaNaNaNaNaNaNaNaNaNaNaNa(I133
I416
tp300
aNaNaNaNaNaNaNaNaNaNaNaNaNaNaNaNaNaNaNaNaNaNaNaNaNaNaNaNaNaNaNaNa(I130
I413
tp301
aNaNaNaNaNaNaNaNaNaNaNaNaNaNaNaNaNaNaNaNaNaNaNaNaNaNaNaNaNaNaNaNaNaNaNaNaNaNaNaNaNaNaNa(I128
I410
tp302
aNaNaNaNaNaNaNaNaNaNaNaNaNaNaNaNaNaNaNaNaNaNaNaNaNaNaNaNaNaNaNaNaNa(I126
I408
tp303
aNaNaNaNaNaNaNaNaNaNaNaNaNaNaNaNaNaNaNaNaNaNaNaNaNaNaNaNaNaNaNaNaNa(I120
I405
tp304
aNaNaNaNaNaNaNaNaNaNaNaNaNaNaNaNaNaNaNaNaNaNaNaNaNaNaNaNaNaNaNaNaNaNaNa(I122
I403
tp305
aNaNaNaNaNaNaNaNaNaNaNaNaNaNaNaNaNaNaNaNaNaNaNaNaNaNaNaNaNaNaNaNaNaNaNaNaNaNaNaNaNaNaNa(I124
I402
tp306
aNaNaNaNaNaNaNaNaNaNaNaNaNaNaNaNaNaNaNaNaNaNaNaNaNaNaNaNaNaNaNaNaNa(I131
I401
tp307
aNaNaNaNaNaNaNaNaNaNaNaNaNaNaNaNaNaNaNaNaNaNaNaNaNaNaNaNaNaNaNaNaNa(I134
I399
tp308
aNaNaNaNaNaNaNaNaNaNaNaNaNaNaNaNaNaNaNaNaNaNaNaNaNaNaNaNaNaNaNaNaNaNaNaNaNaNaNaNaNaNaNa(I137
I398
tp309
aNaNaNaNaNaNaNaNaNaNaNaNaNaNaNaNaNaNaNaNaNaNaNaNaNaNaNaNaNaNaNaNaNa(I141
I396
tp310
aNaNaNaNaNaNaNaNaNaNaNaNaNaNaNaNaNaNaNaNaNaNaNaNaNaNaNaNaNaNaNaNaNa(I146
I392
tp311
aNaNaNaNaNaNaNaNaNaNaNaNaNaNaNaNaNaNaNaNaNaNaNaNaNaNaNaNaNaNaNaNaNaNaNaNaNaNaNaNaNaNaNa(I253
I272
tp312
aNaNaNaNaNaNaNaNaNaNaNaNaNaNaNaNaNaNaNaNaNaNaNaNaNaNaNaNaNaNaNaNaNa(I257
I261
tp313
aNaNaNaNaNaNaNaNaNaNaNaNaNaNaNaNaNaNaNaNaNaNaNaNaNaNaNaNaNaNaNaNaNa(I263
I261
tp314
aNaNaNaNaNaNaNaNaNaNaNaNaNaNaNaNaNaNaNaNaNaNaNaNaNaNaNaNaNaNaNaNaNa(I268
I260
tp315
aNaNaNaNaNaNaNaNaNaNaNaNaNaNaNaNaNaNaNaNaNaNaNaNaNaNaNaNaNaNaNaNaNaNaNaNaNaNaNaNaNaNaNa(I260
I254
tp316
aNaNaNaNaNaNaNaNaNaNaNaNaNaNaNasS'eyetrack_data'
p317
(lp318
(I1031
I11
I0
I0
I1008596069
F1480624829541.0
tp319
a(I1032
I11
I0
I0
I1008596102
F1480624829574.0
tp320
a(I1033
I11
I0
I0
I1008596136
F1480624829608.0
tp321
a(I1034
I11
I0
I0
I1008596182
F1480624829654.0
tp322
a(I1035
I11
I328
I729
I1008596215
F1480624829687.0
tp323
a(I1036
I11
I284
I677
I1008596251
F1480624829723.0
tp324
a(I1037
I11
I327
I693
I1008596286
F1480624829758.0
tp325
a(I1038
I11
I303
I681
I1008596320
F1480624829792.0
tp326
a(I1039
I11
I306
I681
I1008596364
F1480624829836.0
tp327
a(I1040
I11
I304
I679
I1008596400
F1480624829872.0
tp328
a(I1041
I11
I314
I683
I1008596435
F1480624829907.0
tp329
a(I1042
I11
I301
I682
I1008596469
F1480624829941.0
tp330
a(I1043
I11
I294
I680
I1008596514
F1480624829986.0
tp331
a(I1044
I11
I285
I679
I1008596547
F1480624830019.0
tp332
a(I1045
I11
I143
I644
I1008596581
F1480624830053.0
tp333
a(I1046
I11
I268
I677
I1008596625
F1480624830097.0
tp334
a(I1047
I11
I234
I665
I1008596659
F1480624830131.0
tp335
a(I1048
I11
I227
I660
I1008596693
F1480624830165.0
tp336
a(I1049
I11
I212
I656
I1008596727
F1480624830199.0
tp337
a(I1050
I11
I206
I653
I1008596771
F1480624830243.0
tp338
a(I1051
I11
I201
I650
I1008596805
F1480624830277.0
tp339
a(I1052
I11
I203
I647
I1008596840
F1480624830312.0
tp340
a(I1053
I11
I98
I552
I1008596886
F1480624830358.0
tp341
a(I1054
I11
I56
I533
I1008596920
F1480624830392.0
tp342
a(I1055
I11
I94
I533
I1008596954
F1480624830426.0
tp343
a(I1056
I11
I100
I533
I1008596988
F1480624830460.0
tp344
a(I1057
I11
I103
I533
I1008597032
F1480624830504.0
tp345
a(I1058
I11
I163
I525
I1008597066
F1480624830538.0
tp346
a(I1059
I11
I163
I526
I1008597100
F1480624830572.0
tp347
a(I1060
I11
I161
I528
I1008597134
F1480624830606.0
tp348
a(I1061
I11
I161
I527
I1008597178
F1480624830650.0
tp349
a(I1062
I11
I141
I526
I1008597212
F1480624830684.0
tp350
a(I1063
I11
I118
I522
I1008597245
F1480624830717.0
tp351
a(I1064
I11
I103
I514
I1008597290
F1480624830762.0
tp352
a(I1065
I11
I100
I509
I1008597325
F1480624830797.0
tp353
a(I1066
I11
I96
I504
I1008597359
F1480624830831.0
tp354
a(I1067
I11
I88
I498
I1008597404
F1480624830876.0
tp355
a(I1068
I11
I96
I497
I1008597438
F1480624830910.0
tp356
a(I1069
I11
I96
I494
I1008597472
F1480624830944.0
tp357
a(I1070
I11
I91
I488
I1008597507
F1480624830979.0
tp358
a(I1071
I11
I97
I486
I1008597550
F1480624831022.0
tp359
a(I1072
I11
I93
I481
I1008597584
F1480624831056.0
tp360
a(I1073
I11
I222
I394
I1008597618
F1480624831090.0
tp361
a(I1074
I11
I230
I394
I1008597661
F1480624831133.0
tp362
a(I1075
I11
I231
I400
I1008597695
F1480624831167.0
tp363
a(I1076
I11
I0
I0
I1008597729
F1480624831201.0
tp364
a(I1077
I11
I203
I395
I1008597763
F1480624831235.0
tp365
a(I1078
I11
I330
I154
I1008597809
F1480624831281.0
tp366
a(I1079
I11
I0
I0
I1008597845
F1480624831317.0
tp367
a(I1080
I11
I0
I0
I1008597880
F1480624831352.0
tp368
a(I1081
I11
I228
I325
I1008597913
F1480624831385.0
tp369
a(I1082
I11
I156
I375
I1008597947
F1480624831419.0
tp370
a(I1083
I11
I0
I0
I1008597991
F1480624831463.0
tp371
a(I1084
I11
I324
I102
I1008598026
F1480624831498.0
tp372
a(I1085
I11
I0
I0
I1008598060
F1480624831532.0
tp373
a(I1086
I11
I0
I0
I1008598106
F1480624831578.0
tp374
a(I1087
I11
I0
I0
I1008598140
F1480624831612.0
tp375
a(I1088
I11
I0
I0
I1008598174
F1480624831646.0
tp376
a(I1089
I11
I369
I90
I1008598207
F1480624831679.0
tp377
a(I1090
I11
I390
I101
I1008598252
F1480624831724.0
tp378
a(I1091
I11
I450
I170
I1008598287
F1480624831759.0
tp379
a(I1092
I11
I524
I-149
I1008598320
F1480624831792.0
tp380
a(I1093
I11
I491
I-22
I1008598363
F1480624831835.0
tp381
a(I1094
I11
I478
I25
I1008598397
F1480624831869.0
tp382
a(I1095
I11
I479
I79
I1008598431
F1480624831903.0
tp383
a(I1096
I11
I422
I252
I1008598476
F1480624831948.0
tp384
a(I1097
I11
I429
I246
I1008598510
F1480624831982.0
tp385
a(I1098
I11
I442
I247
I1008598544
F1480624832016.0
tp386
a(I1099
I11
I446
I247
I1008598579
F1480624832051.0
tp387
a(I1100
I11
I441
I249
I1008598623
F1480624832095.0
tp388
a(I1101
I11
I445
I250
I1008598657
F1480624832129.0
tp389
a(I1102
I11
I453
I252
I1008598691
F1480624832163.0
tp390
a(I1103
I11
I459
I253
I1008598734
F1480624832206.0
tp391
a(I1104
I11
I466
I255
I1008598768
F1480624832240.0
tp392
a(I1105
I11
I471
I256
I1008598802
F1480624832274.0
tp393
a(I1106
I11
I476
I258
I1008598847
F1480624832319.0
tp394
a(I1107
I11
I485
I260
I1008598880
F1480624832352.0
tp395
a(I1108
I11
I489
I268
I1008598918
F1480624832390.0
tp396
a(I1109
I11
I599
I349
I1008598951
F1480624832423.0
tp397
a(I1110
I11
I644
I351
I1008598984
F1480624832456.0
tp398
a(I1111
I11
I614
I355
I1008599028
F1480624832500.0
tp399
a(I1112
I11
I605
I357
I1008599063
F1480624832535.0
tp400
a(I1113
I11
I600
I359
I1008599098
F1480624832570.0
tp401
a(I1114
I11
I599
I361
I1008599142
F1480624832614.0
tp402
a(I1115
I11
I608
I365
I1008599175
F1480624832647.0
tp403
a(I1116
I11
I615
I368
I1008599211
F1480624832683.0
tp404
a(I1117
I11
I614
I371
I1008599246
F1480624832718.0
tp405
a(I1118
I11
I612
I374
I1008599291
F1480624832763.0
tp406
a(I1119
I11
I612
I377
I1008599325
F1480624832797.0
tp407
a(I1120
I11
I610
I379
I1008599359
F1480624832831.0
tp408
a(I1121
I11
I610
I382
I1008599393
F1480624832865.0
tp409
a(I1122
I11
I615
I387
I1008599438
F1480624832910.0
tp410
a(I1123
I11
I564
I537
I1008599471
F1480624832943.0
tp411
a(I1124
I11
I635
I548
I1008599505
F1480624832977.0
tp412
a(I1125
I11
I624
I550
I1008599549
F1480624833021.0
tp413
a(I1126
I11
I619
I551
I1008599584
F1480624833056.0
tp414
a(I1127
I11
I604
I554
I1008599619
F1480624833091.0
tp415
a(I1128
I11
I612
I565
I1008599653
F1480624833125.0
tp416
a(I1129
I11
I596
I570
I1008599698
F1480624833170.0
tp417
a(I1130
I11
I595
I572
I1008599732
F1480624833204.0
tp418
a(I1131
I11
I579
I576
I1008599767
F1480624833239.0
tp419
a(I1132
I11
I595
I578
I1008599800
F1480624833272.0
tp420
a(I1133
I11
I472
I664
I1008599844
F1480624833316.0
tp421
a(I1134
I11
I508
I646
I1008599878
F1480624833350.0
tp422
a(I1135
I11
I492
I650
I1008599912
F1480624833384.0
tp423
a(I1136
I11
I483
I652
I1008599956
F1480624833428.0
tp424
a(I1137
I11
I468
I656
I1008599989
F1480624833461.0
tp425
a(I1138
I11
I460
I663
I1008600023
F1480624833495.0
tp426
a(I1139
I11
I514
I655
I1008600066
F1480624833538.0
tp427
a(I1140
I11
I426
I681
I1008600099
F1480624833571.0
tp428
a(I1141
I11
I417
I682
I1008600135
F1480624833607.0
tp429
a(I1142
I11
I415
I682
I1008600169
F1480624833641.0
tp430
a(I1143
I11
I415
I681
I1008600214
F1480624833686.0
tp431
a(I1144
I11
I397
I683
I1008600249
F1480624833721.0
tp432
a(I1145
I11
I380
I684
I1008600283
F1480624833755.0
tp433
a(I1146
I11
I381
I685
I1008600318
F1480624833790.0
tp434
a(I1147
I11
I355
I687
I1008600363
F1480624833835.0
tp435
a(I1148
I11
I352
I692
I1008600397
F1480624833869.0
tp436
a(I1149
I11
I347
I693
I1008600433
F1480624833905.0
tp437
a(I1150
I11
I349
I695
I1008600466
F1480624833938.0
tp438
a(I1151
I11
I344
I695
I1008600511
F1480624833983.0
tp439
a(I1152
I11
I333
I694
I1008600545
F1480624834017.0
tp440
a(I1153
I11
I334
I695
I1008600578
F1480624834050.0
tp441
a(I1154
I11
I218
I665
I1008600623
F1480624834095.0
tp442
a(I1155
I11
I147
I648
I1008600655
F1480624834127.0
tp443
a(I1156
I11
I174
I625
I1008600689
F1480624834161.0
tp444
a(I1157
I11
I176
I619
I1008600734
F1480624834206.0
tp445
a(I1158
I11
I173
I616
I1008600769
F1480624834241.0
tp446
a(I1159
I11
I165
I605
I1008600803
F1480624834275.0
tp447
a(I1160
I11
I157
I600
I1008600838
F1480624834310.0
tp448
a(I1161
I11
I140
I598
I1008600882
F1480624834354.0
tp449
a(I1162
I11
I150
I596
I1008600917
F1480624834389.0
tp450
a(I1163
I11
I153
I589
I1008600952
F1480624834424.0
tp451
a(I1164
I11
I99
I483
I1008600986
F1480624834458.0
tp452
a(I1165
I11
I106
I476
I1008601020
F1480624834492.0
tp453
a(I1166
I11
I106
I475
I1008601065
F1480624834537.0
tp454
a(I1167
I11
I102
I474
I1008601099
F1480624834571.0
tp455
a(I1168
I11
I103
I473
I1008601133
F1480624834605.0
tp456
a(I1169
I11
I106
I472
I1008601178
F1480624834650.0
tp457
a(I1170
I11
I105
I471
I1008601212
F1480624834684.0
tp458
a(I1171
I11
I114
I472
I1008601247
F1480624834719.0
tp459
a(I1172
I11
I114
I471
I1008601281
F1480624834753.0
tp460
a(I1173
I11
I110
I470
I1008601325
F1480624834797.0
tp461
a(I1174
I11
I50
I452
I1008601358
F1480624834830.0
tp462
a(I1175
I11
I143
I430
I1008601392
F1480624834864.0
tp463
a(I1176
I11
I156
I428
I1008601428
F1480624834900.0
tp464
a(I1177
I11
I141
I420
I1008601472
F1480624834944.0
tp465
a(I1178
I11
I133
I416
I1008601506
F1480624834978.0
tp466
a(I1179
I11
I130
I413
I1008601539
F1480624835011.0
tp467
a(I1180
I11
I128
I410
I1008601583
F1480624835055.0
tp468
a(I1181
I11
I126
I408
I1008601617
F1480624835089.0
tp469
a(I1182
I11
I120
I405
I1008601651
F1480624835123.0
tp470
a(I1183
I11
I122
I403
I1008601687
F1480624835159.0
tp471
a(I1184
I11
I124
I402
I1008601731
F1480624835203.0
tp472
a(I1185
I11
I131
I401
I1008601765
F1480624835237.0
tp473
a(I1186
I11
I134
I399
I1008601799
F1480624835271.0
tp474
a(I1187
I11
I137
I398
I1008601843
F1480624835315.0
tp475
a(I1188
I11
I141
I396
I1008601877
F1480624835349.0
tp476
a(I1189
I11
I146
I392
I1008601911
F1480624835383.0
tp477
a(I1190
I11
I253
I272
I1008601955
F1480624835427.0
tp478
a(I1191
I11
I257
I261
I1008601989
F1480624835461.0
tp479
a(I1192
I11
I263
I261
I1008602023
F1480624835495.0
tp480
a(I1193
I11
I268
I260
I1008602057
F1480624835529.0
tp481
a(I1194
I11
I260
I254
I1008602101
F1480624835573.0
tp482
asS'playback_times'
p483
(lp484
I28
aI176
aI227
aI267
aI303
aI339
aI372
aI404
aI446
aI500
aI536
aI569
aI601
aI651
aI689
aI722
aI754
aI787
aI820
aI851
aI883
aI915
aI947
aI979
aI1010
aI1042
aI1075
aI1106
aI1140
aI1172
aI1203
aI1235
aI1267
aI1299
aI1330
aI1362
aI1395
aI1427
aI1459
aI1491
aI1523
aI1554
aI1587
aI1618
aI1651
aI1964
aI2009
aI2046
aI2091
aI2129
aI2162
aI2195
aI2227
aI2259
aI2292
aI2323
aI2355
aI2388
aI2505
aI2545
aI2578
aI2610
aI2642
aI2674
aI2706
aI2737
aI2769
aI2800
aI2833
aI2865
aI2896
aI2927
aI2958
aI2990
aI3023
aI3054
aI3085
aI3116
aI3148
aI3179
aI3213
aI3245
aI3277
aI3308
aI3339
aI3370
aI3402
aI3433
aI3464
aI3497
aI3528
aI3560
aI3591
aI3622
aI3654
aI3685
aI3716
aI3748
aI3780
aI3811
aI3843
aI3874
aI3905
aI3936
aI3967
aI3999
aI4030
aI4062
aI4093
aI4124
aI4156
aI4187
aI4218
aI4249
aI4281
aI4312
aI4343
aI4382
aI4430
aI4463
aI4580
aI4636
aI4676
aI4713
aI4747
aI4780
aI4812
aI4846
aI4878
aI4910
aI4941
aI4972
aI5005
aI5037
aI5069
aI5100
aI5132
aI5164
aI5196
aI5227
aI5259
aI5290
aI5322
aI5353
aI5386
aI5418
aI5450
aI5481
aI5514
aI5546
aI5578
aI5609
aI5641
aI5672
aI5707
aI5739
aI5771
aI5802
aI5834
aI5866
aI5897
aI5928
aI5960
aI5991
aI6023
asS'moving_object_data'
p485
(lp486
(I1101
I11
I524
I324
F1480624828189.0
tp487
a(I1102
I11
I535
I340
F1480624828239.0
tp488
a(I1103
I11
I546
I357
F1480624828289.0
tp489
a(I1104
I11
I555
I375
F1480624828339.0
tp490
a(I1105
I11
I561
I388
F1480624828389.0
tp491
a(I1106
I11
I567
I407
F1480624828439.0
tp492
a(I1107
I11
I572
I427
F1480624828489.0
tp493
a(I1108
I11
I575
I446
F1480624828539.0
tp494
a(I1109
I11
I577
I466
F1480624828589.0
tp495
a(I1110
I11
I577
I486
F1480624828639.0
tp496
a(I1111
I11
I576
I501
F1480624828689.0
tp497
a(I1112
I11
I574
I521
F1480624828739.0
tp498
a(I1113
I11
I570
I541
F1480624828789.0
tp499
a(I1114
I11
I564
I560
F1480624828839.0
tp500
a(I1115
I11
I557
I578
F1480624828889.0
tp501
a(I1116
I11
I548
I596
F1480624828939.0
tp502
a(I1117
I11
I538
I614
F1480624828990.0
tp503
a(I1118
I11
I529
I626
F1480624829039.0
tp504
a(I1119
I11
I517
I642
F1480624829089.0
tp505
a(I1120
I11
I503
I656
F1480624829139.0
tp506
a(I1121
I11
I488
I670
F1480624829189.0
tp507
a(I1122
I11
I473
I682
F1480624829239.0
tp508
a(I1123
I11
I456
I693
F1480624829289.0
tp509
a(I1124
I11
I443
I700
F1480624829339.0
tp510
a(I1125
I11
I425
I709
F1480624829389.0
tp511
a(I1126
I11
I406
I716
F1480624829439.0
tp512
a(I1127
I11
I387
I721
F1480624829489.0
tp513
a(I1128
I11
I367
I725
F1480624829539.0
tp514
a(I1129
I11
I347
I728
F1480624829589.0
tp515
a(I1130
I11
I327
I728
F1480624829639.0
tp516
a(I1131
I11
I312
I728
F1480624829690.0
tp517
a(I1132
I11
I292
I726
F1480624829739.0
tp518
a(I1133
I11
I273
I722
F1480624829789.0
tp519
a(I1134
I11
I253
I717
F1480624829839.0
tp520
a(I1135
I11
I235
I711
F1480624829889.0
tp521
a(I1136
I11
I216
I702
F1480624829939.0
tp522
a(I1137
I11
I203
I695
F1480624829989.0
tp523
a(I1138
I11
I186
I685
F1480624830039.0
tp524
a(I1139
I11
I170
I673
F1480624830089.0
tp525
a(I1140
I11
I155
I660
F1480624830139.0
tp526
a(I1141
I11
I141
I645
F1480624830189.0
tp527
a(I1142
I11
I129
I630
F1480624830239.0
tp528
a(I1143
I11
I117
I613
F1480624830289.0
tp529
a(I1144
I11
I109
I601
F1480624830340.0
tp530
a(I1145
I11
I100
I583
F1480624830389.0
tp531
a(I1146
I11
I93
I564
F1480624830439.0
tp532
a(I1147
I11
I87
I545
F1480624830489.0
tp533
a(I1148
I11
I82
I526
F1480624830539.0
tp534
a(I1149
I11
I79
I506
F1480624830589.0
tp535
a(I1150
I11
I78
I491
F1480624830639.0
tp536
a(I1151
I11
I78
I471
F1480624830689.0
tp537
a(I1152
I11
I79
I451
F1480624830739.0
tp538
a(I1153
I11
I82
I431
F1480624830789.0
tp539
a(I1154
I11
I87
I412
F1480624830839.0
tp540
a(I1155
I11
I93
I393
F1480624830889.0
tp541
a(I1156
I11
I100
I374
F1480624830940.0
tp542
a(I1157
I11
I107
I361
F1480624830989.0
tp543
a(I1158
I11
I117
I344
F1480624831039.0
tp544
a(I1159
I11
I128
I327
F1480624831089.0
tp545
a(I1160
I11
I141
I312
F1480624831139.0
tp546
a(I1161
I11
I155
I297
F1480624831189.0
tp547
a(I1162
I11
I170
I284
F1480624831239.0
tp548
a(I1163
I11
I182
I275
F1480624831289.0
tp549
a(I1164
I11
I199
I264
F1480624831339.0
tp550
a(I1165
I11
I216
I255
F1480624831389.0
tp551
a(I1166
I11
I235
I246
F1480624831439.0
tp552
a(I1167
I11
I253
I240
F1480624831489.0
tp553
a(I1168
I11
I273
I235
F1480624831539.0
tp554
a(I1169
I11
I292
I231
F1480624831590.0
tp555
a(I1170
I11
I307
I229
F1480624831639.0
tp556
a(I1171
I11
I327
I229
F1480624831689.0
tp557
a(I1172
I11
I347
I229
F1480624831739.0
tp558
a(I1173
I11
I367
I232
F1480624831789.0
tp559
a(I1174
I11
I387
I236
F1480624831839.0
tp560
a(I1175
I11
I406
I241
F1480624831889.0
tp561
a(I1176
I11
I420
I246
F1480624831939.0
tp562
a(I1177
I11
I438
I254
F1480624831989.0
tp563
a(I1178
I11
I456
I264
F1480624832039.0
tp564
a(I1179
I11
I473
I275
F1480624832089.0
tp565
a(I1180
I11
I488
I287
F1480624832139.0
tp566
a(I1181
I11
I503
I301
F1480624832189.0
tp567
a(I1182
I11
I517
I315
F1480624832240.0
tp568
a(I1183
I11
I526
I327
F1480624832289.0
tp569
a(I1184
I11
I538
I343
F1480624832339.0
tp570
a(I1185
I11
I548
I360
F1480624832389.0
tp571
a(I1186
I11
I557
I378
F1480624832439.0
tp572
a(I1187
I11
I564
I397
F1480624832489.0
tp573
a(I1188
I11
I570
I416
F1480624832539.0
tp574
a(I1189
I11
I573
I431
F1480624832589.0
tp575
a(I1190
I11
I576
I451
F1480624832639.0
tp576
a(I1191
I11
I577
I471
F1480624832689.0
tp577
a(I1192
I11
I577
I491
F1480624832739.0
tp578
a(I1193
I11
I575
I510
F1480624832789.0
tp579
a(I1194
I11
I572
I530
F1480624832839.0
tp580
a(I1195
I11
I567
I550
F1480624832890.0
tp581
a(I1196
I11
I563
I564
F1480624832939.0
tp582
a(I1197
I11
I555
I582
F1480624832989.0
tp583
a(I1198
I11
I546
I600
F1480624833039.0
tp584
a(I1199
I11
I535
I617
F1480624833089.0
tp585
a(I1200
I11
I524
I633
F1480624833139.0
tp586
a(I1201
I11
I511
I649
F1480624833189.0
tp587
a(I1202
I11
I500
I659
F1480624833239.0
tp588
a(I1203
I11
I485
I672
F1480624833289.0
tp589
a(I1204
I11
I469
I684
F1480624833339.0
tp590
a(I1205
I11
I452
I695
F1480624833389.0
tp591
a(I1206
I11
I435
I704
F1480624833439.0
tp592
a(I1207
I11
I416
I712
F1480624833489.0
tp593
a(I1208
I11
I397
I719
F1480624833540.0
tp594
a(I1209
I11
I383
I722
F1480624833589.0
tp595
a(I1210
I11
I363
I726
F1480624833639.0
tp596
a(I1211
I11
I343
I728
F1480624833689.0
tp597
a(I1212
I11
I323
I728
F1480624833739.0
tp598
a(I1213
I11
I303
I727
F1480624833789.0
tp599
a(I1214
I11
I283
I725
F1480624833839.0
tp600
a(I1215
I11
I269
I721
F1480624833889.0
tp601
a(I1216
I11
I249
I716
F1480624833939.0
tp602
a(I1217
I11
I231
I709
F1480624833989.0
tp603
a(I1218
I11
I213
I701
F1480624834039.0
tp604
a(I1219
I11
I195
I691
F1480624834089.0
tp605
a(I1220
I11
I179
I679
F1480624834139.0
tp606
a(I1221
I11
I163
I667
F1480624834189.0
tp607
a(I1222
I11
I152
I657
F1480624834239.0
tp608
a(I1223
I11
I138
I642
F1480624834289.0
tp609
a(I1224
I11
I126
I626
F1480624834339.0
tp610
a(I1225
I11
I115
I610
F1480624834389.0
tp611
a(I1226
I11
I105
I592
F1480624834439.0
tp612
a(I1227
I11
I97
I574
F1480624834489.0
tp613
a(I1228
I11
I91
I560
F1480624834539.0
tp614
a(I1229
I11
I85
I541
F1480624834589.0
tp615
a(I1230
I11
I81
I522
F1480624834639.0
tp616
a(I1231
I11
I79
I502
F1480624834689.0
tp617
a(I1232
I11
I78
I482
F1480624834739.0
tp618
a(I1233
I11
I78
I462
F1480624834789.0
tp619
a(I1234
I11
I80
I442
F1480624834839.0
tp620
a(I1235
I11
I83
I427
F1480624834889.0
tp621
a(I1236
I11
I88
I408
F1480624834939.0
tp622
a(I1237
I11
I94
I389
F1480624834989.0
tp623
a(I1238
I11
I102
I371
F1480624835039.0
tp624
a(I1239
I11
I111
I353
F1480624835089.0
tp625
a(I1240
I11
I122
I336
F1480624835139.0
tp626
a(I1241
I11
I131
I324
F1480624835189.0
tp627
a(I1242
I11
I144
I309
F1480624835239.0
tp628
a(I1243
I11
I158
I295
F1480624835289.0
tp629
a(I1244
I11
I173
I282
F1480624835339.0
tp630
a(I1245
I11
I190
I270
F1480624835389.0
tp631
a(I1246
I11
I207
I260
F1480624835439.0
tp632
a(I1247
I11
I225
I251
F1480624835506.0
tp633
a(I1248
I11
I234
I247
F1480624835541.0
tp634
a(I1249
I11
I253
I240
F1480624835589.0
tp635
as.